
StateMachineControl.elf:     file format elf32-avr

Sections:
Idx Name          Size      VMA       LMA       File off  Algn
  0 .data         000001f8  00800100  00001754  000017e8  2**0
                  CONTENTS, ALLOC, LOAD, DATA
  1 .text         00001754  00000000  00000000  00000094  2**1
                  CONTENTS, ALLOC, LOAD, READONLY, CODE
  2 .bss          000000d8  008002f8  008002f8  000019e0  2**0
                  ALLOC
  3 .stab         00001914  00000000  00000000  000019e0  2**2
                  CONTENTS, READONLY, DEBUGGING
  4 .stabstr      00000448  00000000  00000000  000032f4  2**0
                  CONTENTS, READONLY, DEBUGGING
  5 .comment      0000002f  00000000  00000000  0000373c  2**0
                  CONTENTS, READONLY
  6 .debug_aranges 000001f0  00000000  00000000  0000376b  2**0
                  CONTENTS, READONLY, DEBUGGING
  7 .debug_info   00002613  00000000  00000000  0000395b  2**0
                  CONTENTS, READONLY, DEBUGGING
  8 .debug_abbrev 00000bba  00000000  00000000  00005f6e  2**0
                  CONTENTS, READONLY, DEBUGGING
  9 .debug_line   00001355  00000000  00000000  00006b28  2**0
                  CONTENTS, READONLY, DEBUGGING
 10 .debug_frame  00000424  00000000  00000000  00007e80  2**2
                  CONTENTS, READONLY, DEBUGGING
 11 .debug_str    000007b2  00000000  00000000  000082a4  2**0
                  CONTENTS, READONLY, DEBUGGING
 12 .debug_loc    00001502  00000000  00000000  00008a56  2**0
                  CONTENTS, READONLY, DEBUGGING
 13 .debug_ranges 00000178  00000000  00000000  00009f58  2**0
                  CONTENTS, READONLY, DEBUGGING

Disassembly of section .text:

00000000 <__vectors>:
#include "Macroes.h"

unsigned char KeyTranslate (uint8_t keyData)
{
	unsigned char kbdChar = 0;
	switch  (keyData)
       0:	0c 94 b5 00 	jmp	0x16a	; 0x16a <__ctors_end>
       4:	0c 94 39 02 	jmp	0x472	; 0x472 <__vector_1>
       8:	0c 94 4c 02 	jmp	0x498	; 0x498 <__vector_2>
       c:	0c 94 d2 00 	jmp	0x1a4	; 0x1a4 <__bad_interrupt>
      10:	0c 94 d2 00 	jmp	0x1a4	; 0x1a4 <__bad_interrupt>
      14:	0c 94 d2 00 	jmp	0x1a4	; 0x1a4 <__bad_interrupt>
      18:	0c 94 d2 00 	jmp	0x1a4	; 0x1a4 <__bad_interrupt>
      1c:	0c 94 d2 00 	jmp	0x1a4	; 0x1a4 <__bad_interrupt>
      20:	0c 94 d2 00 	jmp	0x1a4	; 0x1a4 <__bad_interrupt>
      24:	0c 94 d2 00 	jmp	0x1a4	; 0x1a4 <__bad_interrupt>
      28:	0c 94 d2 00 	jmp	0x1a4	; 0x1a4 <__bad_interrupt>
      2c:	0c 94 e3 01 	jmp	0x3c6	; 0x3c6 <__vector_11>
      30:	0c 94 d2 00 	jmp	0x1a4	; 0x1a4 <__bad_interrupt>
      34:	0c 94 d2 00 	jmp	0x1a4	; 0x1a4 <__bad_interrupt>
      38:	0c 94 d2 00 	jmp	0x1a4	; 0x1a4 <__bad_interrupt>
      3c:	0c 94 d2 00 	jmp	0x1a4	; 0x1a4 <__bad_interrupt>
      40:	0c 94 d2 00 	jmp	0x1a4	; 0x1a4 <__bad_interrupt>
      44:	0c 94 d2 00 	jmp	0x1a4	; 0x1a4 <__bad_interrupt>
      48:	0c 94 b6 01 	jmp	0x36c	; 0x36c <__vector_18>
      4c:	0c 94 d2 00 	jmp	0x1a4	; 0x1a4 <__bad_interrupt>
      50:	0c 94 d2 00 	jmp	0x1a4	; 0x1a4 <__bad_interrupt>
      54:	0c 94 d2 00 	jmp	0x1a4	; 0x1a4 <__bad_interrupt>
      58:	0c 94 d2 00 	jmp	0x1a4	; 0x1a4 <__bad_interrupt>
      5c:	0c 94 d2 00 	jmp	0x1a4	; 0x1a4 <__bad_interrupt>
      60:	0c 94 d2 00 	jmp	0x1a4	; 0x1a4 <__bad_interrupt>
      64:	0c 94 d2 00 	jmp	0x1a4	; 0x1a4 <__bad_interrupt>

00000068 <__c.2006>:
      68:	6e 61 6e 00                                         nan.

0000006c <__c.2004>:
      6c:	69 6e 66 00 00 40 7a 10 f3 5a 00 a0 72 4e 18 09     inf..@z..Z..rN..
      7c:	00 10 a5 d4 e8 00 00 e8 76 48 17 00 00 e4 0b 54     ........vH.....T
	{
		case 0b01110111: kbdChar='1'; break;
		case 0b10110111: kbdChar='2'; break;
		case 0b11010111: kbdChar='3'; break;
		case 0b01111011: kbdChar='4'; break;
		case 0b10111011: kbdChar='5'; break;
      8c:	02 00 00 ca 9a 3b 00 00 00 e1 f5 05 00 00 80 96     .....;..........
		case 0b11011011: kbdChar='6'; break;
		case 0b01111101: kbdChar='7'; break;
		case 0b10111101: kbdChar='8'; break;
		case 0b11011101: kbdChar='9'; break;
      9c:	98 00 00 00 40 42 0f 00 00 00 a0 86 01 00 00 00     ....@B..........
		case 0b10111110: kbdChar='0'; break;
		case 0b01111110: kbdChar='A'; break;
		case 0b11011110: kbdChar='B'; break;
		case 0b11101110: kbdChar='C'; break;
      ac:	10 27 00 00 00 00 e8 03 00 00 00 00 64 00 00 00     .'..........d...
		case 0b11101101: kbdChar='D'; break;
		case 0b11101011: kbdChar='E'; break;
		case 0b11100111: kbdChar='F'; break;
		case 0b00000000: kbdChar='L'; break;
      bc:	00 00 0a 00 00 00 00 00 01 00 00 00 00 00 2c 76     ..............,v
		case 0b11111111: kbdChar='H'; break;
		case 0b00001111: kbdChar='Q'; break;
		case 0b11110000: kbdChar='P'; break;
		case 0b11001110: Disp_clear(); break;
      cc:	d8 88 dc 67 4f 08 23 df c1 df ae 59 e1 b1 b7 96     ...gO.#....Y....
      dc:	e5 e3 e4 53 c6 3a e6 51 99 76 96 e8 e6 c2 84 26     ...S.:.Q.v.....&
      ec:	eb 89 8c 9b 62 ed 40 7c 6f fc ef bc 9c 9f 40 f2     ....b.@|o.....@.
      fc:	ba a5 6f a5 f4 90 05 5a 2a f7 5c 93 6b 6c f9 67     ..o....Z*.\.kl.g
     10c:	6d c1 1b fc e0 e4 0d 47 fe f5 20 e6 b5 00 d0 ed     m......G.. .....
     11c:	90 2e 03 00 94 35 77 05 00 80 84 1e 08 00 00 20     .....5w........ 
     12c:	4e 0a 00 00 00 c8 0c 33 33 33 33 0f 98 6e 12 83     N......3333..n..
     13c:	11 41 ef 8d 21 14 89 3b e6 55 16 cf fe e6 db 18     .A..!..;.U......
     14c:	d1 84 4b 38 1b f7 7c 1d 90 1d a4 bb e4 24 20 32     ..K8..|......$ 2
     15c:	84 72 5e 22 81 00 c9 f1 24 ec a1 e5 3d 27           .r^"....$...='

0000016a <__ctors_end>:
     16a:	11 24       	eor	r1, r1
     16c:	1f be       	out	0x3f, r1	; 63
     16e:	cf ef       	ldi	r28, 0xFF	; 255
     170:	d8 e0       	ldi	r29, 0x08	; 8
     172:	de bf       	out	0x3e, r29	; 62
     174:	cd bf       	out	0x3d, r28	; 61

00000176 <__do_copy_data>:
     176:	12 e0       	ldi	r17, 0x02	; 2
     178:	a0 e0       	ldi	r26, 0x00	; 0
     17a:	b1 e0       	ldi	r27, 0x01	; 1
     17c:	e4 e5       	ldi	r30, 0x54	; 84
     17e:	f7 e1       	ldi	r31, 0x17	; 23
     180:	02 c0       	rjmp	.+4      	; 0x186 <__do_copy_data+0x10>
     182:	05 90       	lpm	r0, Z+
     184:	0d 92       	st	X+, r0
     186:	a8 3f       	cpi	r26, 0xF8	; 248
     188:	b1 07       	cpc	r27, r17
     18a:	d9 f7       	brne	.-10     	; 0x182 <__do_copy_data+0xc>

0000018c <__do_clear_bss>:
     18c:	23 e0       	ldi	r18, 0x03	; 3
     18e:	a8 ef       	ldi	r26, 0xF8	; 248
     190:	b2 e0       	ldi	r27, 0x02	; 2
     192:	01 c0       	rjmp	.+2      	; 0x196 <.do_clear_bss_start>

00000194 <.do_clear_bss_loop>:
     194:	1d 92       	st	X+, r1

00000196 <.do_clear_bss_start>:
     196:	a0 3d       	cpi	r26, 0xD0	; 208
     198:	b2 07       	cpc	r27, r18
     19a:	e1 f7       	brne	.-8      	; 0x194 <.do_clear_bss_loop>
     19c:	0e 94 b9 04 	call	0x972	; 0x972 <main>
     1a0:	0c 94 a8 0b 	jmp	0x1750	; 0x1750 <_exit>

000001a4 <__bad_interrupt>:
     1a4:	0c 94 00 00 	jmp	0	; 0x0 <__vectors>

000001a8 <ADC_init>:
 *  Author: T
 */ 
#include "Macroes.h"
void ADC_init()
{
	DDRC &= ~(1<<DDC5);
     1a8:	3d 98       	cbi	0x07, 5	; 7
	ADMUX |= (1<<MUX0)|(1<<MUX2); // External ref and adc5 selected (1<<REFS0)||(1<<MUX1)|(1<<MUX3)
     1aa:	ec e7       	ldi	r30, 0x7C	; 124
     1ac:	f0 e0       	ldi	r31, 0x00	; 0
     1ae:	80 81       	ld	r24, Z
     1b0:	85 60       	ori	r24, 0x05	; 5
     1b2:	80 83       	st	Z, r24
	DIDR0 |= (1<<ADC5D); // Disable digital input buffer
     1b4:	ee e7       	ldi	r30, 0x7E	; 126
     1b6:	f0 e0       	ldi	r31, 0x00	; 0
     1b8:	80 81       	ld	r24, Z
     1ba:	80 62       	ori	r24, 0x20	; 32
     1bc:	80 83       	st	Z, r24
	ADCSRA |= (1<<ADEN)|(1<<ADIF)|(1<<ADPS0)|(1<<ADPS1)|(1<<ADPS2);   //enable adc
     1be:	ea e7       	ldi	r30, 0x7A	; 122
     1c0:	f0 e0       	ldi	r31, 0x00	; 0
     1c2:	80 81       	ld	r24, Z
     1c4:	87 69       	ori	r24, 0x97	; 151
     1c6:	80 83       	st	Z, r24
     1c8:	08 95       	ret

000001ca <ADC_Sample>:
}

uint16_t ADC_Sample()
{
	ADCSRA|=(1<<ADSC);
     1ca:	ea e7       	ldi	r30, 0x7A	; 122
     1cc:	f0 e0       	ldi	r31, 0x00	; 0
     1ce:	80 81       	ld	r24, Z
     1d0:	80 64       	ori	r24, 0x40	; 64
     1d2:	80 83       	st	Z, r24
	while(!(ADCSRA & (1<<ADIF)));
     1d4:	80 81       	ld	r24, Z
     1d6:	84 ff       	sbrs	r24, 4
     1d8:	fd cf       	rjmp	.-6      	; 0x1d4 <ADC_Sample+0xa>
	return ADC;
     1da:	20 91 78 00 	lds	r18, 0x0078
     1de:	30 91 79 00 	lds	r19, 0x0079
     1e2:	82 2f       	mov	r24, r18
     1e4:	93 2f       	mov	r25, r19
     1e6:	08 95       	ret

000001e8 <Disp_command>:
	displayAddress++;
}

void Disp_command(char command)
{
	SPCR |= (1<<DORD); // Send LSB first
     1e8:	9c b5       	in	r25, 0x2c	; 44
     1ea:	90 62       	ori	r25, 0x20	; 32
     1ec:	9c bd       	out	0x2c, r25	; 44
	DDRB |= (1<<DDB1); // Shift register Output Enable
     1ee:	21 9a       	sbi	0x04, 1	; 4
	PORTB |= (1<<PORTB1); // Shift register Output Enable high (active low)
     1f0:	29 9a       	sbi	0x05, 1	; 5
	DDRB |= (1<<DDB0); // Enable display output
     1f2:	20 9a       	sbi	0x04, 0	; 4
	PORTB &= ~(1<<PORTB0); // Enable display low
     1f4:	28 98       	cbi	0x05, 0	; 5
	DDRC |= (1<<DDC4); // RS output
     1f6:	3c 9a       	sbi	0x07, 4	; 7
	PORTC &= ~(1<<PORTC4); // RS low = instruction
     1f8:	44 98       	cbi	0x08, 4	; 8
	SPI_MasterTransmit(command);
     1fa:	0e 94 a3 01 	call	0x346	; 0x346 <SPI_MasterTransmit>
	SPCR &= ~(1<<DORD); // Reset to MSB first
     1fe:	8c b5       	in	r24, 0x2c	; 44
     200:	8f 7d       	andi	r24, 0xDF	; 223
     202:	8c bd       	out	0x2c, r24	; 44
	PORTB |= (1<<PORTB0); // Enable display high
     204:	28 9a       	sbi	0x05, 0	; 5
	PORTB &= ~(1<<PORTB1); // Shift register Output Enable low (active low)
     206:	29 98       	cbi	0x05, 1	; 5
	#else
		//round up by default
		__ticks_dc = (uint32_t)(ceil(fabs(__tmp)));
	#endif

	__builtin_avr_delay_cycles(__ticks_dc);
     208:	87 ec       	ldi	r24, 0xC7	; 199
     20a:	90 e0       	ldi	r25, 0x00	; 0
     20c:	01 97       	sbiw	r24, 0x01	; 1
     20e:	f1 f7       	brne	.-4      	; 0x20c <Disp_command+0x24>
     210:	00 c0       	rjmp	.+0      	; 0x212 <Disp_command+0x2a>
     212:	00 00       	nop
	_delay_us(50);
	PORTB &= ~(1<<PORTB0); // Enable display low
     214:	28 98       	cbi	0x05, 0	; 5
     216:	8f e7       	ldi	r24, 0x7F	; 127
     218:	9c e0       	ldi	r25, 0x0C	; 12
     21a:	01 97       	sbiw	r24, 0x01	; 1
     21c:	f1 f7       	brne	.-4      	; 0x21a <Disp_command+0x32>
     21e:	00 c0       	rjmp	.+0      	; 0x220 <Disp_command+0x38>
     220:	00 00       	nop
     222:	08 95       	ret

00000224 <Disp_init>:
	#else
		//round up by default
		__ticks_dc = (uint32_t)(ceil(fabs(__tmp)));
	#endif

	__builtin_avr_delay_cycles(__ticks_dc);
     224:	2f ef       	ldi	r18, 0xFF	; 255
     226:	80 e7       	ldi	r24, 0x70	; 112
     228:	92 e0       	ldi	r25, 0x02	; 2
     22a:	21 50       	subi	r18, 0x01	; 1
     22c:	80 40       	sbci	r24, 0x00	; 0
     22e:	90 40       	sbci	r25, 0x00	; 0
     230:	e1 f7       	brne	.-8      	; 0x22a <Disp_init+0x6>
     232:	00 c0       	rjmp	.+0      	; 0x234 <Disp_init+0x10>
     234:	00 00       	nop
}

void Disp_init()
{
	_delay_ms(50);
	Disp_command(0b00111000); // 0b00111000
     236:	88 e3       	ldi	r24, 0x38	; 56
     238:	0e 94 f4 00 	call	0x1e8	; 0x1e8 <Disp_command>
	#else
		//round up by default
		__ticks_dc = (uint32_t)(ceil(fabs(__tmp)));
	#endif

	__builtin_avr_delay_cycles(__ticks_dc);
     23c:	87 ec       	ldi	r24, 0xC7	; 199
     23e:	90 e0       	ldi	r25, 0x00	; 0
     240:	01 97       	sbiw	r24, 0x01	; 1
     242:	f1 f7       	brne	.-4      	; 0x240 <Disp_init+0x1c>
     244:	00 c0       	rjmp	.+0      	; 0x246 <Disp_init+0x22>
     246:	00 00       	nop
	_delay_us(50);
	Disp_command(0b00001111); // 0b00001111
     248:	8f e0       	ldi	r24, 0x0F	; 15
     24a:	0e 94 f4 00 	call	0x1e8	; 0x1e8 <Disp_command>
     24e:	8f ec       	ldi	r24, 0xCF	; 207
     250:	97 e0       	ldi	r25, 0x07	; 7
     252:	01 97       	sbiw	r24, 0x01	; 1
     254:	f1 f7       	brne	.-4      	; 0x252 <Disp_init+0x2e>
     256:	00 c0       	rjmp	.+0      	; 0x258 <Disp_init+0x34>
     258:	00 00       	nop
	_delay_us(500);
	Disp_command(0b00000001); // 0b00000001
     25a:	81 e0       	ldi	r24, 0x01	; 1
     25c:	0e 94 f4 00 	call	0x1e8	; 0x1e8 <Disp_command>
     260:	8f e8       	ldi	r24, 0x8F	; 143
     262:	91 e0       	ldi	r25, 0x01	; 1
     264:	01 97       	sbiw	r24, 0x01	; 1
     266:	f1 f7       	brne	.-4      	; 0x264 <Disp_init+0x40>
     268:	00 c0       	rjmp	.+0      	; 0x26a <Disp_init+0x46>
     26a:	00 00       	nop
	_delay_us(100);
	Disp_command(0b00000110); // 0b00000111
     26c:	86 e0       	ldi	r24, 0x06	; 6
     26e:	0e 94 f4 00 	call	0x1e8	; 0x1e8 <Disp_command>
     272:	8f e9       	ldi	r24, 0x9F	; 159
     274:	9f e0       	ldi	r25, 0x0F	; 15
     276:	01 97       	sbiw	r24, 0x01	; 1
     278:	f1 f7       	brne	.-4      	; 0x276 <Disp_init+0x52>
     27a:	00 c0       	rjmp	.+0      	; 0x27c <Disp_init+0x58>
     27c:	00 00       	nop
     27e:	08 95       	ret

00000280 <Disp_GotoXY>:
	_delay_us(1000);
}

void Disp_GotoXY (int x,int y)   // Go to position x (max 16) in line y (max 2).
{
	if (y == 2) displayAddress = x + 16;
     280:	62 30       	cpi	r22, 0x02	; 2
     282:	71 05       	cpc	r23, r1
     284:	29 f4       	brne	.+10     	; 0x290 <Disp_GotoXY+0x10>
     286:	98 2f       	mov	r25, r24
     288:	90 5f       	subi	r25, 0xF0	; 240
     28a:	90 93 00 01 	sts	0x0100, r25
     28e:	02 c0       	rjmp	.+4      	; 0x294 <Disp_GotoXY+0x14>
	else displayAddress = x;
     290:	80 93 00 01 	sts	0x0100, r24
	char lineaddr = ((y-1) * 0x40 + (x-1)) | 0x80;// Put the x position
     294:	90 e4       	ldi	r25, 0x40	; 64
     296:	69 9f       	mul	r22, r25
     298:	80 0d       	add	r24, r0
     29a:	11 24       	eor	r1, r1
     29c:	81 54       	subi	r24, 0x41	; 65
	Disp_command(lineaddr);           // Send a command with 'lineaddr'
     29e:	80 68       	ori	r24, 0x80	; 128
     2a0:	0e 94 f4 00 	call	0x1e8	; 0x1e8 <Disp_command>
     2a4:	08 95       	ret

000002a6 <Disp_char>:
#include "Macroes.h"
static uint8_t displayAddress = 1;

void Disp_char(char data)
{
     2a6:	cf 93       	push	r28
     2a8:	c8 2f       	mov	r28, r24
	//static uint8_t displayAddress = 1;
	if (displayAddress == 17) Disp_GotoXY(1,2);
     2aa:	90 91 00 01 	lds	r25, 0x0100
     2ae:	91 31       	cpi	r25, 0x11	; 17
     2b0:	39 f4       	brne	.+14     	; 0x2c0 <Disp_char+0x1a>
     2b2:	62 e0       	ldi	r22, 0x02	; 2
     2b4:	70 e0       	ldi	r23, 0x00	; 0
     2b6:	81 e0       	ldi	r24, 0x01	; 1
     2b8:	90 e0       	ldi	r25, 0x00	; 0
     2ba:	0e 94 40 01 	call	0x280	; 0x280 <Disp_GotoXY>
     2be:	0b c0       	rjmp	.+22     	; 0x2d6 <Disp_char+0x30>
	else if (displayAddress == 33)
     2c0:	91 32       	cpi	r25, 0x21	; 33
     2c2:	49 f4       	brne	.+18     	; 0x2d6 <Disp_char+0x30>
	{
		 Disp_GotoXY(1,1);
     2c4:	61 e0       	ldi	r22, 0x01	; 1
     2c6:	70 e0       	ldi	r23, 0x00	; 0
     2c8:	81 e0       	ldi	r24, 0x01	; 1
     2ca:	90 e0       	ldi	r25, 0x00	; 0
     2cc:	0e 94 40 01 	call	0x280	; 0x280 <Disp_GotoXY>
		 displayAddress = 1;
     2d0:	81 e0       	ldi	r24, 0x01	; 1
     2d2:	80 93 00 01 	sts	0x0100, r24
	}
	DDRC |= (1<<DDC4); // RS output
     2d6:	3c 9a       	sbi	0x07, 4	; 7
	PORTC |= (1<<PORTC4); // RS high = data
     2d8:	44 9a       	sbi	0x08, 4	; 8
	SPCR |= (1<<DORD); // Send LSB first
     2da:	8c b5       	in	r24, 0x2c	; 44
     2dc:	80 62       	ori	r24, 0x20	; 32
     2de:	8c bd       	out	0x2c, r24	; 44
	DDRB |= (1<<DDB1); // Shift register Output Enable
     2e0:	21 9a       	sbi	0x04, 1	; 4
	PORTB |= (1<<PORTB1); // Shift register Output Enable high (active low)
     2e2:	29 9a       	sbi	0x05, 1	; 5
	DDRB |= (1<<DDB0); // Enable display output
     2e4:	20 9a       	sbi	0x04, 0	; 4
	PORTB &= ~(1<<PORTB0); // Enable display low
     2e6:	28 98       	cbi	0x05, 0	; 5

	SPI_MasterTransmit(data);
     2e8:	8c 2f       	mov	r24, r28
     2ea:	0e 94 a3 01 	call	0x346	; 0x346 <SPI_MasterTransmit>
	SPCR &= ~(1<<DORD); // Reset to MSB
     2ee:	8c b5       	in	r24, 0x2c	; 44
     2f0:	8f 7d       	andi	r24, 0xDF	; 223
     2f2:	8c bd       	out	0x2c, r24	; 44
	PORTB |= (1<<PORTB0); // Enable display high
     2f4:	28 9a       	sbi	0x05, 0	; 5
	PORTB &= ~(1<<PORTB1);
     2f6:	29 98       	cbi	0x05, 1	; 5
     2f8:	87 ec       	ldi	r24, 0xC7	; 199
     2fa:	90 e0       	ldi	r25, 0x00	; 0
     2fc:	01 97       	sbiw	r24, 0x01	; 1
     2fe:	f1 f7       	brne	.-4      	; 0x2fc <Disp_char+0x56>
     300:	00 c0       	rjmp	.+0      	; 0x302 <Disp_char+0x5c>
     302:	00 00       	nop
	//PORTB |= (1<<PORTB0); // Enable display high
	_delay_us(50);
	PORTB &= ~(1<<PORTB0); // Enable display low
     304:	28 98       	cbi	0x05, 0	; 5
	//PORTB |= (1<<PORTB1);
	//PORTB &= ~(1<<PORTB1);
	displayAddress++;
     306:	80 91 00 01 	lds	r24, 0x0100
     30a:	8f 5f       	subi	r24, 0xFF	; 255
     30c:	80 93 00 01 	sts	0x0100, r24
}
     310:	cf 91       	pop	r28
     312:	08 95       	ret

00000314 <Disp_printString>:
	//PORTB |= (1<<PORTB1);
	//PORTB &= ~(1<<PORTB1);
}

void Disp_printString (char *str)
{
     314:	cf 93       	push	r28
     316:	df 93       	push	r29
     318:	ec 01       	movw	r28, r24
	while (*str > 0)              // Continue until the pointer reaches -
     31a:	88 81       	ld	r24, Y
     31c:	88 23       	and	r24, r24
     31e:	31 f0       	breq	.+12     	; 0x32c <Disp_printString+0x18>
	_delay_us(800);
	//PORTB |= (1<<PORTB1);
	//PORTB &= ~(1<<PORTB1);
}

void Disp_printString (char *str)
     320:	21 96       	adiw	r28, 0x01	; 1
{
	while (*str > 0)              // Continue until the pointer reaches -
	{                             // the zero termination of the string
		Disp_char(*str);           // Send the value of the pointer address
     322:	0e 94 53 01 	call	0x2a6	; 0x2a6 <Disp_char>
	//PORTB &= ~(1<<PORTB1);
}

void Disp_printString (char *str)
{
	while (*str > 0)              // Continue until the pointer reaches -
     326:	89 91       	ld	r24, Y+
     328:	81 11       	cpse	r24, r1
     32a:	fb cf       	rjmp	.-10     	; 0x322 <Disp_printString+0xe>
	{                             // the zero termination of the string
		Disp_char(*str);           // Send the value of the pointer address
		str++;                     // Increment pointer
	}
}
     32c:	df 91       	pop	r29
     32e:	cf 91       	pop	r28
     330:	08 95       	ret

00000332 <Disp_clear>:
	Disp_command(lineaddr);           // Send a command with 'lineaddr'
}

void Disp_clear (void)
{
	Disp_command(0x01);      // Send command '0x01' (Display Clear)
     332:	81 e0       	ldi	r24, 0x01	; 1
     334:	0e 94 f4 00 	call	0x1e8	; 0x1e8 <Disp_command>
     338:	08 95       	ret

0000033a <SPI_MasterInit>:

void SPI_MasterInit()
{
	
	// Set MOSI and SCK  & SS output, all others input
	DDRB |= (1<<DDB5)|(1<<DDB3)|(1<<DDB2);// PB5 = SCK, PB3 = MOSI, PB2 = SS(No effect when output)
     33a:	84 b1       	in	r24, 0x04	; 4
     33c:	8c 62       	ori	r24, 0x2C	; 44
     33e:	84 b9       	out	0x04, r24	; 4
	//PORTB |= (1<<PORTB2); //Pull up resistor on SS input to ensure Master mode
	// Enable SPI, Master, set clock rate fck/32
	SPCR = (1<<SPE)|(1<<MSTR)|(1<<SPR1);
     340:	82 e5       	ldi	r24, 0x52	; 82
     342:	8c bd       	out	0x2c, r24	; 44
     344:	08 95       	ret

00000346 <SPI_MasterTransmit>:
}

void SPI_MasterTransmit(char cData)
{
	// Start transmission
	SPDR = cData;
     346:	8e bd       	out	0x2e, r24	; 46
	// Wait for transmission complete
	while(!(SPSR & (1<<SPIF)));
     348:	0d b4       	in	r0, 0x2d	; 45
     34a:	07 fe       	sbrs	r0, 7
     34c:	fd cf       	rjmp	.-6      	; 0x348 <SPI_MasterTransmit+0x2>
}
     34e:	08 95       	ret

00000350 <RFID_init>:
char receiveBuffer[64] = "";
//char comPacket[64] = "";

void RFID_init()
{
	EICRA |= (1<<ISC11)|(1<<ISC10)|(1<<ISC01)|(1<<ISC00); // Get interrupt on rising edge
     350:	e9 e6       	ldi	r30, 0x69	; 105
     352:	f0 e0       	ldi	r31, 0x00	; 0
     354:	80 81       	ld	r24, Z
     356:	8f 60       	ori	r24, 0x0F	; 15
     358:	80 83       	st	Z, r24
	EIMSK |= (1<<INT1)|(1<<INT0); // Enable external interrupts
     35a:	8d b3       	in	r24, 0x1d	; 29
     35c:	83 60       	ori	r24, 0x03	; 3
     35e:	8d bb       	out	0x1d, r24	; 29
	DDRD &= ~(1<<DDD3)&~(1<<DDD2); //Set external interrupts INT0 & INT1 as inputs
     360:	8a b1       	in	r24, 0x0a	; 10
     362:	83 7f       	andi	r24, 0xF3	; 243
     364:	8a b9       	out	0x0a, r24	; 10
	DDRB |= (1<<DDB2); //Set SS as output. RFID
     366:	22 9a       	sbi	0x04, 2	; 4
	PORTB |= (1<<PORTB2); //Set SS high (Active low)
     368:	2a 9a       	sbi	0x05, 2	; 5
     36a:	08 95       	ret

0000036c <__vector_18>:
}

ISR(USART_RX_vect)
{
     36c:	1f 92       	push	r1
     36e:	0f 92       	push	r0
     370:	0f b6       	in	r0, 0x3f	; 63
     372:	0f 92       	push	r0
     374:	11 24       	eor	r1, r1
     376:	2f 93       	push	r18
     378:	8f 93       	push	r24
     37a:	9f 93       	push	r25
     37c:	ef 93       	push	r30
     37e:	ff 93       	push	r31
	receiveBuffer[dataIndex] = UDR0;
     380:	80 91 cc 03 	lds	r24, 0x03CC
     384:	90 91 cd 03 	lds	r25, 0x03CD
     388:	20 91 c6 00 	lds	r18, 0x00C6
     38c:	fc 01       	movw	r30, r24
     38e:	e8 50       	subi	r30, 0x08	; 8
     390:	fd 4f       	sbci	r31, 0xFD	; 253
     392:	20 83       	st	Z, r18
	if (receiveBuffer[dataIndex] == '*')
     394:	2a 32       	cpi	r18, 0x2A	; 42
     396:	41 f4       	brne	.+16     	; 0x3a8 <__vector_18+0x3c>
	{
		dataIndex = 0;
     398:	10 92 cd 03 	sts	0x03CD, r1
     39c:	10 92 cc 03 	sts	0x03CC, r1
		packetReceived = true;
     3a0:	81 e0       	ldi	r24, 0x01	; 1
     3a2:	80 93 c4 03 	sts	0x03C4, r24
     3a6:	05 c0       	rjmp	.+10     	; 0x3b2 <__vector_18+0x46>
	}
	else dataIndex++;
     3a8:	01 96       	adiw	r24, 0x01	; 1
     3aa:	90 93 cd 03 	sts	0x03CD, r25
     3ae:	80 93 cc 03 	sts	0x03CC, r24
}
     3b2:	ff 91       	pop	r31
     3b4:	ef 91       	pop	r30
     3b6:	9f 91       	pop	r25
     3b8:	8f 91       	pop	r24
     3ba:	2f 91       	pop	r18
     3bc:	0f 90       	pop	r0
     3be:	0f be       	out	0x3f, r0	; 63
     3c0:	0f 90       	pop	r0
     3c2:	1f 90       	pop	r1
     3c4:	18 95       	reti

000003c6 <__vector_11>:

ISR(TIMER1_COMPA_vect) // Comes every 1ms
{
     3c6:	1f 92       	push	r1
     3c8:	0f 92       	push	r0
     3ca:	0f b6       	in	r0, 0x3f	; 63
     3cc:	0f 92       	push	r0
     3ce:	11 24       	eor	r1, r1
     3d0:	8f 93       	push	r24
     3d2:	9f 93       	push	r25
	volatile static uint16_t count1Sec = INTERVAL_SEC,count9ms = INTERVAL_READKEYS, count100ms = INTERVAL_READ_TIMEOUT;
	if ((--count1Sec) ==0)  // Do if 1 minus countSec = 0
     3d4:	80 91 05 01 	lds	r24, 0x0105
     3d8:	90 91 06 01 	lds	r25, 0x0106
     3dc:	01 97       	sbiw	r24, 0x01	; 1
     3de:	90 93 06 01 	sts	0x0106, r25
     3e2:	80 93 05 01 	sts	0x0105, r24
     3e6:	89 2b       	or	r24, r25
     3e8:	31 f4       	brne	.+12     	; 0x3f6 <__vector_11+0x30>
	{
		count1Sec = INTERVAL_SEC; // 1000
     3ea:	88 ee       	ldi	r24, 0xE8	; 232
     3ec:	93 e0       	ldi	r25, 0x03	; 3
     3ee:	90 93 06 01 	sts	0x0106, r25
     3f2:	80 93 05 01 	sts	0x0105, r24
		//runSec = true;      // Set runSec to 1. Activating this function to be run next time
	}
	if (((--count9ms) ==0) && (keypadActive))  // Do if 1 minus count9ms = 0 and keypadActive = true
     3f6:	80 91 03 01 	lds	r24, 0x0103
     3fa:	90 91 04 01 	lds	r25, 0x0104
     3fe:	01 97       	sbiw	r24, 0x01	; 1
     400:	90 93 04 01 	sts	0x0104, r25
     404:	80 93 03 01 	sts	0x0103, r24
     408:	89 2b       	or	r24, r25
     40a:	69 f4       	brne	.+26     	; 0x426 <__vector_11+0x60>
     40c:	80 91 c8 03 	lds	r24, 0x03C8
     410:	88 23       	and	r24, r24
     412:	49 f0       	breq	.+18     	; 0x426 <__vector_11+0x60>
	{
		count9ms = INTERVAL_READKEYS; //
     414:	89 e0       	ldi	r24, 0x09	; 9
     416:	90 e0       	ldi	r25, 0x00	; 0
     418:	90 93 04 01 	sts	0x0104, r25
     41c:	80 93 03 01 	sts	0x0103, r24
		readKeys = true;      // Set readKeys to 1. Activating this function to be run next time
     420:	81 e0       	ldi	r24, 0x01	; 1
     422:	80 93 cb 03 	sts	0x03CB, r24
	}
	if (startReadTimeout)
     426:	80 91 c5 03 	lds	r24, 0x03C5
     42a:	88 23       	and	r24, r24
     42c:	a9 f0       	breq	.+42     	; 0x458 <__vector_11+0x92>
	{
		if ((--count100ms) ==0)  // Do if 1 minus count9ms = 0 and keypadActive = true
     42e:	80 91 01 01 	lds	r24, 0x0101
     432:	90 91 02 01 	lds	r25, 0x0102
     436:	01 97       	sbiw	r24, 0x01	; 1
     438:	90 93 02 01 	sts	0x0102, r25
     43c:	80 93 01 01 	sts	0x0101, r24
     440:	89 2b       	or	r24, r25
     442:	81 f4       	brne	.+32     	; 0x464 <__vector_11+0x9e>
		{
			count100ms = INTERVAL_READ_TIMEOUT; //
     444:	84 e6       	ldi	r24, 0x64	; 100
     446:	90 e0       	ldi	r25, 0x00	; 0
     448:	90 93 02 01 	sts	0x0102, r25
     44c:	80 93 01 01 	sts	0x0101, r24
			readTimeout = true;      // Set readKeys to 1. Activating this function to be run next time
     450:	81 e0       	ldi	r24, 0x01	; 1
     452:	80 93 c6 03 	sts	0x03C6, r24
     456:	06 c0       	rjmp	.+12     	; 0x464 <__vector_11+0x9e>
		}
	}
	else
	{
		count100ms = INTERVAL_READ_TIMEOUT;
     458:	84 e6       	ldi	r24, 0x64	; 100
     45a:	90 e0       	ldi	r25, 0x00	; 0
     45c:	90 93 02 01 	sts	0x0102, r25
     460:	80 93 01 01 	sts	0x0101, r24
	}
}
     464:	9f 91       	pop	r25
     466:	8f 91       	pop	r24
     468:	0f 90       	pop	r0
     46a:	0f be       	out	0x3f, r0	; 63
     46c:	0f 90       	pop	r0
     46e:	1f 90       	pop	r1
     470:	18 95       	reti

00000472 <__vector_1>:

ISR(INT0_vect)
{
     472:	1f 92       	push	r1
     474:	0f 92       	push	r0
     476:	0f b6       	in	r0, 0x3f	; 63
     478:	0f 92       	push	r0
     47a:	11 24       	eor	r1, r1
     47c:	8f 93       	push	r24
	if (!dataReady) cardPresent = true;
     47e:	80 91 c9 03 	lds	r24, 0x03C9
     482:	81 11       	cpse	r24, r1
     484:	03 c0       	rjmp	.+6      	; 0x48c <__vector_1+0x1a>
     486:	81 e0       	ldi	r24, 0x01	; 1
     488:	80 93 ca 03 	sts	0x03CA, r24
	//UART_Transmit_String("card present");
}
     48c:	8f 91       	pop	r24
     48e:	0f 90       	pop	r0
     490:	0f be       	out	0x3f, r0	; 63
     492:	0f 90       	pop	r0
     494:	1f 90       	pop	r1
     496:	18 95       	reti

00000498 <__vector_2>:

ISR(INT1_vect)
{
     498:	1f 92       	push	r1
     49a:	0f 92       	push	r0
     49c:	0f b6       	in	r0, 0x3f	; 63
     49e:	0f 92       	push	r0
     4a0:	11 24       	eor	r1, r1
     4a2:	8f 93       	push	r24
	dataReady = true;
     4a4:	81 e0       	ldi	r24, 0x01	; 1
     4a6:	80 93 c9 03 	sts	0x03C9, r24
	//UART_Transmit_String("data ready");
}
     4aa:	8f 91       	pop	r24
     4ac:	0f 90       	pop	r0
     4ae:	0f be       	out	0x3f, r0	; 63
     4b0:	0f 90       	pop	r0
     4b2:	1f 90       	pop	r1
     4b4:	18 95       	reti

000004b6 <Timer_init>:

void Timer_init()
{
	TCCR1B = (1<<CS10)|(1<<WGM12);  // Set clock no prescaler(16Mhz) & mode 4 CTC
     4b6:	89 e0       	ldi	r24, 0x09	; 9
     4b8:	80 93 81 00 	sts	0x0081, r24
	OCR1A = 15999;                  // Get interrupt at 15999 = every 1mS
     4bc:	8f e7       	ldi	r24, 0x7F	; 127
     4be:	9e e3       	ldi	r25, 0x3E	; 62
     4c0:	90 93 89 00 	sts	0x0089, r25
     4c4:	80 93 88 00 	sts	0x0088, r24
	TIMSK1 = (1<<OCIE1A);            // Enable interrupt compare match
     4c8:	82 e0       	ldi	r24, 0x02	; 2
     4ca:	80 93 6f 00 	sts	0x006F, r24
     4ce:	08 95       	ret

000004d0 <Disp_printState>:
}

void Disp_printState()
{
	switch(state)
     4d0:	80 91 ce 03 	lds	r24, 0x03CE
     4d4:	90 91 cf 03 	lds	r25, 0x03CF
     4d8:	8a 30       	cpi	r24, 0x0A	; 10
     4da:	91 05       	cpc	r25, r1
     4dc:	09 f4       	brne	.+2      	; 0x4e0 <Disp_printState+0x10>
     4de:	48 c0       	rjmp	.+144    	; 0x570 <Disp_printState+0xa0>
     4e0:	7c f4       	brge	.+30     	; 0x500 <Disp_printState+0x30>
     4e2:	83 30       	cpi	r24, 0x03	; 3
     4e4:	91 05       	cpc	r25, r1
     4e6:	89 f1       	breq	.+98     	; 0x54a <Disp_printState+0x7a>
     4e8:	1c f4       	brge	.+6      	; 0x4f0 <Disp_printState+0x20>
     4ea:	89 2b       	or	r24, r25
     4ec:	b9 f0       	breq	.+46     	; 0x51c <Disp_printState+0x4c>
     4ee:	f1 c0       	rjmp	.+482    	; 0x6d2 <Disp_printState+0x202>
     4f0:	84 30       	cpi	r24, 0x04	; 4
     4f2:	91 05       	cpc	r25, r1
     4f4:	09 f4       	brne	.+2      	; 0x4f8 <Disp_printState+0x28>
     4f6:	52 c0       	rjmp	.+164    	; 0x59c <Disp_printState+0xcc>
     4f8:	05 97       	sbiw	r24, 0x05	; 5
     4fa:	09 f0       	breq	.+2      	; 0x4fe <Disp_printState+0x2e>
     4fc:	ea c0       	rjmp	.+468    	; 0x6d2 <Disp_printState+0x202>
     4fe:	a5 c0       	rjmp	.+330    	; 0x64a <Disp_printState+0x17a>
     500:	8c 30       	cpi	r24, 0x0C	; 12
     502:	91 05       	cpc	r25, r1
     504:	09 f4       	brne	.+2      	; 0x508 <Disp_printState+0x38>
     506:	81 c0       	rjmp	.+258    	; 0x60a <Disp_printState+0x13a>
     508:	0c f4       	brge	.+2      	; 0x50c <Disp_printState+0x3c>
     50a:	5f c0       	rjmp	.+190    	; 0x5ca <Disp_printState+0xfa>
     50c:	8d 30       	cpi	r24, 0x0D	; 13
     50e:	91 05       	cpc	r25, r1
     510:	09 f4       	brne	.+2      	; 0x514 <Disp_printState+0x44>
     512:	b2 c0       	rjmp	.+356    	; 0x678 <Disp_printState+0x1a8>
     514:	0e 97       	sbiw	r24, 0x0e	; 14
     516:	09 f0       	breq	.+2      	; 0x51a <Disp_printState+0x4a>
     518:	dc c0       	rjmp	.+440    	; 0x6d2 <Disp_printState+0x202>
     51a:	c5 c0       	rjmp	.+394    	; 0x6a6 <Disp_printState+0x1d6>
	{
		case stateIdle :
		{
			Disp_clear();
     51c:	0e 94 99 01 	call	0x332	; 0x332 <Disp_clear>
			Disp_GotoXY(1,1);
     520:	61 e0       	ldi	r22, 0x01	; 1
     522:	70 e0       	ldi	r23, 0x00	; 0
     524:	81 e0       	ldi	r24, 0x01	; 1
     526:	90 e0       	ldi	r25, 0x00	; 0
     528:	0e 94 40 01 	call	0x280	; 0x280 <Disp_GotoXY>
			Disp_printString("Welcome");
     52c:	87 e0       	ldi	r24, 0x07	; 7
     52e:	91 e0       	ldi	r25, 0x01	; 1
     530:	0e 94 8a 01 	call	0x314	; 0x314 <Disp_printString>
			Disp_GotoXY(1,2);
     534:	62 e0       	ldi	r22, 0x02	; 2
     536:	70 e0       	ldi	r23, 0x00	; 0
     538:	81 e0       	ldi	r24, 0x01	; 1
     53a:	90 e0       	ldi	r25, 0x00	; 0
     53c:	0e 94 40 01 	call	0x280	; 0x280 <Disp_GotoXY>
			Disp_printString("Swipe card");
     540:	8f e0       	ldi	r24, 0x0F	; 15
     542:	91 e0       	ldi	r25, 0x01	; 1
     544:	0e 94 8a 01 	call	0x314	; 0x314 <Disp_printString>
		}
		break;
     548:	08 95       	ret
		case stateTypePassword :
		{
			Disp_clear();
     54a:	0e 94 99 01 	call	0x332	; 0x332 <Disp_clear>
			Disp_GotoXY(1,1);
     54e:	61 e0       	ldi	r22, 0x01	; 1
     550:	70 e0       	ldi	r23, 0x00	; 0
     552:	81 e0       	ldi	r24, 0x01	; 1
     554:	90 e0       	ldi	r25, 0x00	; 0
     556:	0e 94 40 01 	call	0x280	; 0x280 <Disp_GotoXY>
			Disp_printString("type password");
     55a:	8a e1       	ldi	r24, 0x1A	; 26
     55c:	91 e0       	ldi	r25, 0x01	; 1
     55e:	0e 94 8a 01 	call	0x314	; 0x314 <Disp_printString>
			Disp_GotoXY(1,2);
     562:	62 e0       	ldi	r22, 0x02	; 2
     564:	70 e0       	ldi	r23, 0x00	; 0
     566:	81 e0       	ldi	r24, 0x01	; 1
     568:	90 e0       	ldi	r25, 0x00	; 0
     56a:	0e 94 40 01 	call	0x280	; 0x280 <Disp_GotoXY>
		}
		break;
     56e:	08 95       	ret
		case stateUnknownCard :
		{
			Disp_clear();
     570:	0e 94 99 01 	call	0x332	; 0x332 <Disp_clear>
			Disp_GotoXY(1,1);
     574:	61 e0       	ldi	r22, 0x01	; 1
     576:	70 e0       	ldi	r23, 0x00	; 0
     578:	81 e0       	ldi	r24, 0x01	; 1
     57a:	90 e0       	ldi	r25, 0x00	; 0
     57c:	0e 94 40 01 	call	0x280	; 0x280 <Disp_GotoXY>
			Disp_printString("card unknown");
     580:	88 e2       	ldi	r24, 0x28	; 40
     582:	91 e0       	ldi	r25, 0x01	; 1
     584:	0e 94 8a 01 	call	0x314	; 0x314 <Disp_printString>
	#else
		//round up by default
		__ticks_dc = (uint32_t)(ceil(fabs(__tmp)));
	#endif

	__builtin_avr_delay_cycles(__ticks_dc);
     588:	2f ef       	ldi	r18, 0xFF	; 255
     58a:	87 ea       	ldi	r24, 0xA7	; 167
     58c:	91 e6       	ldi	r25, 0x61	; 97
     58e:	21 50       	subi	r18, 0x01	; 1
     590:	80 40       	sbci	r24, 0x00	; 0
     592:	90 40       	sbci	r25, 0x00	; 0
     594:	e1 f7       	brne	.-8      	; 0x58e <Disp_printState+0xbe>
     596:	00 c0       	rjmp	.+0      	; 0x598 <Disp_printState+0xc8>
     598:	00 00       	nop
     59a:	08 95       	ret
			_delay_ms(2000);
		}
		break;
		case stateWrongPassword :
		{
			Disp_clear();
     59c:	0e 94 99 01 	call	0x332	; 0x332 <Disp_clear>
			Disp_GotoXY(1,1);
     5a0:	61 e0       	ldi	r22, 0x01	; 1
     5a2:	70 e0       	ldi	r23, 0x00	; 0
     5a4:	81 e0       	ldi	r24, 0x01	; 1
     5a6:	90 e0       	ldi	r25, 0x00	; 0
     5a8:	0e 94 40 01 	call	0x280	; 0x280 <Disp_GotoXY>
			Disp_printString("wrong password");
     5ac:	85 e3       	ldi	r24, 0x35	; 53
     5ae:	91 e0       	ldi	r25, 0x01	; 1
     5b0:	0e 94 8a 01 	call	0x314	; 0x314 <Disp_printString>
			Disp_GotoXY(1,2);
     5b4:	62 e0       	ldi	r22, 0x02	; 2
     5b6:	70 e0       	ldi	r23, 0x00	; 0
     5b8:	81 e0       	ldi	r24, 0x01	; 1
     5ba:	90 e0       	ldi	r25, 0x00	; 0
     5bc:	0e 94 40 01 	call	0x280	; 0x280 <Disp_GotoXY>
			Disp_printString("try again:");
     5c0:	84 e4       	ldi	r24, 0x44	; 68
     5c2:	91 e0       	ldi	r25, 0x01	; 1
     5c4:	0e 94 8a 01 	call	0x314	; 0x314 <Disp_printString>
			//_delay_ms(2000);
		}
		break;
     5c8:	08 95       	ret
		case stateDisableCard :
		{
			Disp_clear();
     5ca:	0e 94 99 01 	call	0x332	; 0x332 <Disp_clear>
			Disp_GotoXY(1,1);
     5ce:	61 e0       	ldi	r22, 0x01	; 1
     5d0:	70 e0       	ldi	r23, 0x00	; 0
     5d2:	81 e0       	ldi	r24, 0x01	; 1
     5d4:	90 e0       	ldi	r25, 0x00	; 0
     5d6:	0e 94 40 01 	call	0x280	; 0x280 <Disp_GotoXY>
			Disp_printString("card blocked");
     5da:	8f e4       	ldi	r24, 0x4F	; 79
     5dc:	91 e0       	ldi	r25, 0x01	; 1
     5de:	0e 94 8a 01 	call	0x314	; 0x314 <Disp_printString>
			Disp_GotoXY(1,2);
     5e2:	62 e0       	ldi	r22, 0x02	; 2
     5e4:	70 e0       	ldi	r23, 0x00	; 0
     5e6:	81 e0       	ldi	r24, 0x01	; 1
     5e8:	90 e0       	ldi	r25, 0x00	; 0
     5ea:	0e 94 40 01 	call	0x280	; 0x280 <Disp_GotoXY>
			Disp_printString("contact service");
     5ee:	8c e5       	ldi	r24, 0x5C	; 92
     5f0:	91 e0       	ldi	r25, 0x01	; 1
     5f2:	0e 94 8a 01 	call	0x314	; 0x314 <Disp_printString>
     5f6:	2f ef       	ldi	r18, 0xFF	; 255
     5f8:	87 ea       	ldi	r24, 0xA7	; 167
     5fa:	91 e6       	ldi	r25, 0x61	; 97
     5fc:	21 50       	subi	r18, 0x01	; 1
     5fe:	80 40       	sbci	r24, 0x00	; 0
     600:	90 40       	sbci	r25, 0x00	; 0
     602:	e1 f7       	brne	.-8      	; 0x5fc <Disp_printState+0x12c>
     604:	00 c0       	rjmp	.+0      	; 0x606 <Disp_printState+0x136>
     606:	00 00       	nop
     608:	08 95       	ret
			_delay_ms(2000);
		}
		break;
		case stateCardReadError :
		{
			Disp_clear();
     60a:	0e 94 99 01 	call	0x332	; 0x332 <Disp_clear>
			Disp_GotoXY(1,1);
     60e:	61 e0       	ldi	r22, 0x01	; 1
     610:	70 e0       	ldi	r23, 0x00	; 0
     612:	81 e0       	ldi	r24, 0x01	; 1
     614:	90 e0       	ldi	r25, 0x00	; 0
     616:	0e 94 40 01 	call	0x280	; 0x280 <Disp_GotoXY>
			Disp_printString("card read error");
     61a:	8c e6       	ldi	r24, 0x6C	; 108
     61c:	91 e0       	ldi	r25, 0x01	; 1
     61e:	0e 94 8a 01 	call	0x314	; 0x314 <Disp_printString>
			Disp_GotoXY(1,2);
     622:	62 e0       	ldi	r22, 0x02	; 2
     624:	70 e0       	ldi	r23, 0x00	; 0
     626:	81 e0       	ldi	r24, 0x01	; 1
     628:	90 e0       	ldi	r25, 0x00	; 0
     62a:	0e 94 40 01 	call	0x280	; 0x280 <Disp_GotoXY>
			Disp_printString("swipe again");
     62e:	8c e7       	ldi	r24, 0x7C	; 124
     630:	91 e0       	ldi	r25, 0x01	; 1
     632:	0e 94 8a 01 	call	0x314	; 0x314 <Disp_printString>
     636:	2f ef       	ldi	r18, 0xFF	; 255
     638:	87 ea       	ldi	r24, 0xA7	; 167
     63a:	91 e6       	ldi	r25, 0x61	; 97
     63c:	21 50       	subi	r18, 0x01	; 1
     63e:	80 40       	sbci	r24, 0x00	; 0
     640:	90 40       	sbci	r25, 0x00	; 0
     642:	e1 f7       	brne	.-8      	; 0x63c <Disp_printState+0x16c>
     644:	00 c0       	rjmp	.+0      	; 0x646 <Disp_printState+0x176>
     646:	00 00       	nop
     648:	08 95       	ret
			_delay_ms(2000);
		}
		break;
		case stateCharging:
		{
			Disp_clear();
     64a:	0e 94 99 01 	call	0x332	; 0x332 <Disp_clear>
			Disp_GotoXY(1,1);
     64e:	61 e0       	ldi	r22, 0x01	; 1
     650:	70 e0       	ldi	r23, 0x00	; 0
     652:	81 e0       	ldi	r24, 0x01	; 1
     654:	90 e0       	ldi	r25, 0x00	; 0
     656:	0e 94 40 01 	call	0x280	; 0x280 <Disp_GotoXY>
			Disp_printString("charging data");
     65a:	88 e8       	ldi	r24, 0x88	; 136
     65c:	91 e0       	ldi	r25, 0x01	; 1
     65e:	0e 94 8a 01 	call	0x314	; 0x314 <Disp_printString>
			Disp_GotoXY(1,2);
     662:	62 e0       	ldi	r22, 0x02	; 2
     664:	70 e0       	ldi	r23, 0x00	; 0
     666:	81 e0       	ldi	r24, 0x01	; 1
     668:	90 e0       	ldi	r25, 0x00	; 0
     66a:	0e 94 40 01 	call	0x280	; 0x280 <Disp_GotoXY>
			Disp_printString("xxxxxxxxxxxx");
     66e:	86 e9       	ldi	r24, 0x96	; 150
     670:	91 e0       	ldi	r25, 0x01	; 1
     672:	0e 94 8a 01 	call	0x314	; 0x314 <Disp_printString>
		}
		break;
     676:	08 95       	ret
		case stateConnectCar:
		{
			Disp_clear();
     678:	0e 94 99 01 	call	0x332	; 0x332 <Disp_clear>
			Disp_GotoXY(1,1);
     67c:	61 e0       	ldi	r22, 0x01	; 1
     67e:	70 e0       	ldi	r23, 0x00	; 0
     680:	81 e0       	ldi	r24, 0x01	; 1
     682:	90 e0       	ldi	r25, 0x00	; 0
     684:	0e 94 40 01 	call	0x280	; 0x280 <Disp_GotoXY>
			Disp_printString("Connect Car");
     688:	83 ea       	ldi	r24, 0xA3	; 163
     68a:	91 e0       	ldi	r25, 0x01	; 1
     68c:	0e 94 8a 01 	call	0x314	; 0x314 <Disp_printString>
			Disp_GotoXY(1,2);
     690:	62 e0       	ldi	r22, 0x02	; 2
     692:	70 e0       	ldi	r23, 0x00	; 0
     694:	81 e0       	ldi	r24, 0x01	; 1
     696:	90 e0       	ldi	r25, 0x00	; 0
     698:	0e 94 40 01 	call	0x280	; 0x280 <Disp_GotoXY>
			Disp_printString("to continue");
     69c:	8f ea       	ldi	r24, 0xAF	; 175
     69e:	91 e0       	ldi	r25, 0x01	; 1
     6a0:	0e 94 8a 01 	call	0x314	; 0x314 <Disp_printString>
		}
		break;
     6a4:	08 95       	ret
		case stateErrorState :
		{
			Disp_clear();
     6a6:	0e 94 99 01 	call	0x332	; 0x332 <Disp_clear>
			Disp_GotoXY(1,1);
     6aa:	61 e0       	ldi	r22, 0x01	; 1
     6ac:	70 e0       	ldi	r23, 0x00	; 0
     6ae:	81 e0       	ldi	r24, 0x01	; 1
     6b0:	90 e0       	ldi	r25, 0x00	; 0
     6b2:	0e 94 40 01 	call	0x280	; 0x280 <Disp_GotoXY>
			Disp_printString("Error State");
     6b6:	8b eb       	ldi	r24, 0xBB	; 187
     6b8:	91 e0       	ldi	r25, 0x01	; 1
     6ba:	0e 94 8a 01 	call	0x314	; 0x314 <Disp_printString>
     6be:	2f ef       	ldi	r18, 0xFF	; 255
     6c0:	87 ea       	ldi	r24, 0xA7	; 167
     6c2:	91 e6       	ldi	r25, 0x61	; 97
     6c4:	21 50       	subi	r18, 0x01	; 1
     6c6:	80 40       	sbci	r24, 0x00	; 0
     6c8:	90 40       	sbci	r25, 0x00	; 0
     6ca:	e1 f7       	brne	.-8      	; 0x6c4 <Disp_printState+0x1f4>
     6cc:	00 c0       	rjmp	.+0      	; 0x6ce <Disp_printState+0x1fe>
     6ce:	00 00       	nop
     6d0:	08 95       	ret
			_delay_ms(2000);
		}
		break;
		default : state=stateErrorState; break;
     6d2:	8e e0       	ldi	r24, 0x0E	; 14
     6d4:	90 e0       	ldi	r25, 0x00	; 0
     6d6:	90 93 cf 03 	sts	0x03CF, r25
     6da:	80 93 ce 03 	sts	0x03CE, r24
     6de:	08 95       	ret

000006e0 <GetUID>:
	}
}

void GetUID()
{
     6e0:	ef 92       	push	r14
     6e2:	ff 92       	push	r15
     6e4:	0f 93       	push	r16
     6e6:	1f 93       	push	r17
     6e8:	cf 93       	push	r28
     6ea:	df 93       	push	r29
	PORTB &= ~(1<<PORTB2); // SS low to start transfer
     6ec:	2a 98       	cbi	0x05, 2	; 5
	SPI_MasterTransmit('U'); //0x55 Command get UID
     6ee:	85 e5       	ldi	r24, 0x55	; 85
     6f0:	0e 94 a3 01 	call	0x346	; 0x346 <SPI_MasterTransmit>
	PORTB |= (1<<PORTB2); // SS high to end transfer
     6f4:	2a 9a       	sbi	0x05, 2	; 5
	//UART_Transmit_String("Get UID \n");
	//_delay_us(100000);
	startReadTimeout = true;
     6f6:	81 e0       	ldi	r24, 0x01	; 1
     6f8:	80 93 c5 03 	sts	0x03C5, r24
	cardPresent = false;
     6fc:	10 92 ca 03 	sts	0x03CA, r1
	while(!dataReady || !readTimeout);
     700:	80 91 c9 03 	lds	r24, 0x03C9
     704:	88 23       	and	r24, r24
     706:	e1 f3       	breq	.-8      	; 0x700 <GetUID+0x20>
     708:	80 91 c6 03 	lds	r24, 0x03C6
     70c:	88 23       	and	r24, r24
     70e:	c1 f3       	breq	.-16     	; 0x700 <GetUID+0x20>
	startReadTimeout = false;
     710:	10 92 c5 03 	sts	0x03C5, r1
	if (dataReady)
     714:	80 91 c9 03 	lds	r24, 0x03C9
     718:	88 23       	and	r24, r24
     71a:	09 f4       	brne	.+2      	; 0x71e <GetUID+0x3e>
     71c:	6f c0       	rjmp	.+222    	; 0x7fc <GetUID+0x11c>
	{
		UART_Transmit_String("Data Ready \n");
     71e:	87 ec       	ldi	r24, 0xC7	; 199
     720:	91 e0       	ldi	r25, 0x01	; 1
     722:	0e 94 1c 06 	call	0xc38	; 0xc38 <UART_Transmit_String>
		PORTB &= ~(1<<PORTB2); // SS low to start transfer
     726:	2a 98       	cbi	0x05, 2	; 5
		SPI_MasterTransmit(0xF5); // Send dummy data
     728:	85 ef       	ldi	r24, 0xF5	; 245
     72a:	0e 94 a3 01 	call	0x346	; 0x346 <SPI_MasterTransmit>
		PORTB |= (1<<PORTB2); // SS high to end transfer
     72e:	2a 9a       	sbi	0x05, 2	; 5
	#else
		//round up by default
		__ticks_dc = (uint32_t)(ceil(fabs(__tmp)));
	#endif

	__builtin_avr_delay_cycles(__ticks_dc);
     730:	8f e8       	ldi	r24, 0x8F	; 143
     732:	91 e0       	ldi	r25, 0x01	; 1
     734:	01 97       	sbiw	r24, 0x01	; 1
     736:	f1 f7       	brne	.-4      	; 0x734 <GetUID+0x54>
     738:	00 c0       	rjmp	.+0      	; 0x73a <GetUID+0x5a>
     73a:	00 00       	nop
		_delay_us(100);
		if (SPDR == ACK)
     73c:	8e b5       	in	r24, 0x2e	; 46
     73e:	86 38       	cpi	r24, 0x86	; 134
     740:	09 f0       	breq	.+2      	; 0x744 <GetUID+0x64>
     742:	53 c0       	rjmp	.+166    	; 0x7ea <GetUID+0x10a>
		{
			sprintf(displayBuffer, "UID = ");
     744:	87 e0       	ldi	r24, 0x07	; 7
     746:	e4 ed       	ldi	r30, 0xD4	; 212
     748:	f1 e0       	ldi	r31, 0x01	; 1
     74a:	a8 e7       	ldi	r26, 0x78	; 120
     74c:	b3 e0       	ldi	r27, 0x03	; 3
     74e:	01 90       	ld	r0, Z+
     750:	0d 92       	st	X+, r0
     752:	8a 95       	dec	r24
     754:	e1 f7       	brne	.-8      	; 0x74e <GetUID+0x6e>
     756:	07 e0       	ldi	r16, 0x07	; 7
     758:	10 e0       	ldi	r17, 0x00	; 0
			{
				PORTB &= ~(1<<PORTB2); // SS low to start transfer
				SPI_MasterTransmit(0xF5); // Send dummy data
				PORTB |= (1<<PORTB2); // SS high to end transfer
				_delay_us(100);
				sprintf(comBuffer, "%X", SPDR);
     75a:	0f 2e       	mov	r0, r31
     75c:	fb ed       	ldi	r31, 0xDB	; 219
     75e:	ef 2e       	mov	r14, r31
     760:	f1 e0       	ldi	r31, 0x01	; 1
     762:	ff 2e       	mov	r15, r31
     764:	f0 2d       	mov	r31, r0
     766:	c8 e3       	ldi	r28, 0x38	; 56
     768:	d3 e0       	ldi	r29, 0x03	; 3
		if (SPDR == ACK)
		{
			sprintf(displayBuffer, "UID = ");
			for (int i = 1; i <= 7; i++)
			{
				PORTB &= ~(1<<PORTB2); // SS low to start transfer
     76a:	2a 98       	cbi	0x05, 2	; 5
				SPI_MasterTransmit(0xF5); // Send dummy data
     76c:	85 ef       	ldi	r24, 0xF5	; 245
     76e:	0e 94 a3 01 	call	0x346	; 0x346 <SPI_MasterTransmit>
				PORTB |= (1<<PORTB2); // SS high to end transfer
     772:	2a 9a       	sbi	0x05, 2	; 5
     774:	8f e8       	ldi	r24, 0x8F	; 143
     776:	91 e0       	ldi	r25, 0x01	; 1
     778:	01 97       	sbiw	r24, 0x01	; 1
     77a:	f1 f7       	brne	.-4      	; 0x778 <GetUID+0x98>
     77c:	00 c0       	rjmp	.+0      	; 0x77e <GetUID+0x9e>
     77e:	00 00       	nop
				_delay_us(100);
				sprintf(comBuffer, "%X", SPDR);
     780:	8e b5       	in	r24, 0x2e	; 46
     782:	1f 92       	push	r1
     784:	8f 93       	push	r24
     786:	ff 92       	push	r15
     788:	ef 92       	push	r14
     78a:	df 93       	push	r29
     78c:	cf 93       	push	r28
     78e:	0e 94 28 0b 	call	0x1650	; 0x1650 <sprintf>
				strcat(displayBuffer,comBuffer);
     792:	be 01       	movw	r22, r28
     794:	88 e7       	ldi	r24, 0x78	; 120
     796:	93 e0       	ldi	r25, 0x03	; 3
     798:	0e 94 ce 0a 	call	0x159c	; 0x159c <strcat>
     79c:	01 50       	subi	r16, 0x01	; 1
     79e:	11 09       	sbc	r17, r1
		PORTB |= (1<<PORTB2); // SS high to end transfer
		_delay_us(100);
		if (SPDR == ACK)
		{
			sprintf(displayBuffer, "UID = ");
			for (int i = 1; i <= 7; i++)
     7a0:	0f 90       	pop	r0
     7a2:	0f 90       	pop	r0
     7a4:	0f 90       	pop	r0
     7a6:	0f 90       	pop	r0
     7a8:	0f 90       	pop	r0
     7aa:	0f 90       	pop	r0
     7ac:	f1 f6       	brne	.-68     	; 0x76a <GetUID+0x8a>
				_delay_us(100);
				sprintf(comBuffer, "%X", SPDR);
				strcat(displayBuffer,comBuffer);
				//Disp_char('0'+i);
			}
			strcat(displayBuffer,"\n");
     7ae:	e8 e7       	ldi	r30, 0x78	; 120
     7b0:	f3 e0       	ldi	r31, 0x03	; 3
     7b2:	01 90       	ld	r0, Z+
     7b4:	00 20       	and	r0, r0
     7b6:	e9 f7       	brne	.-6      	; 0x7b2 <GetUID+0xd2>
     7b8:	31 97       	sbiw	r30, 0x01	; 1
     7ba:	8a e0       	ldi	r24, 0x0A	; 10
     7bc:	90 e0       	ldi	r25, 0x00	; 0
     7be:	91 83       	std	Z+1, r25	; 0x01
     7c0:	80 83       	st	Z, r24
			UART_Transmit_String(displayBuffer);
     7c2:	88 e7       	ldi	r24, 0x78	; 120
     7c4:	93 e0       	ldi	r25, 0x03	; 3
     7c6:	0e 94 1c 06 	call	0xc38	; 0xc38 <UART_Transmit_String>
			strncpy(uID, displayBuffer+6, 8);
     7ca:	48 e0       	ldi	r20, 0x08	; 8
     7cc:	50 e0       	ldi	r21, 0x00	; 0
     7ce:	6e e7       	ldi	r22, 0x7E	; 126
     7d0:	73 e0       	ldi	r23, 0x03	; 3
     7d2:	88 eb       	ldi	r24, 0xB8	; 184
     7d4:	93 e0       	ldi	r25, 0x03	; 3
     7d6:	0e 94 e2 0a 	call	0x15c4	; 0x15c4 <strncpy>
			UART_Transmit_String(uID);
     7da:	88 eb       	ldi	r24, 0xB8	; 184
     7dc:	93 e0       	ldi	r25, 0x03	; 3
     7de:	0e 94 1c 06 	call	0xc38	; 0xc38 <UART_Transmit_String>
			gotUID = true;
     7e2:	81 e0       	ldi	r24, 0x01	; 1
     7e4:	80 93 c7 03 	sts	0x03C7, r24
     7e8:	06 c0       	rjmp	.+12     	; 0x7f6 <GetUID+0x116>
		}
		else
		{
			UART_Transmit_String("Command failed \n");
     7ea:	8e ed       	ldi	r24, 0xDE	; 222
     7ec:	91 e0       	ldi	r25, 0x01	; 1
     7ee:	0e 94 1c 06 	call	0xc38	; 0xc38 <UART_Transmit_String>
			gotUID = false;
     7f2:	10 92 c7 03 	sts	0x03C7, r1
		}
		dataReady = false;
     7f6:	10 92 c9 03 	sts	0x03C9, r1
     7fa:	08 c0       	rjmp	.+16     	; 0x80c <GetUID+0x12c>
	} 
	else
	{
		UART_Transmit_String("RFID reader timeout \n");
     7fc:	8f ee       	ldi	r24, 0xEF	; 239
     7fe:	91 e0       	ldi	r25, 0x01	; 1
     800:	0e 94 1c 06 	call	0xc38	; 0xc38 <UART_Transmit_String>
		dataReady = false;
     804:	10 92 c9 03 	sts	0x03C9, r1
		gotUID = false;
     808:	10 92 c7 03 	sts	0x03C7, r1
	}
}
     80c:	df 91       	pop	r29
     80e:	cf 91       	pop	r28
     810:	1f 91       	pop	r17
     812:	0f 91       	pop	r16
     814:	ff 90       	pop	r15
     816:	ef 90       	pop	r14
     818:	08 95       	ret

0000081a <SendCommand>:

void SendCommand(char command)
{
     81a:	df 92       	push	r13
     81c:	ef 92       	push	r14
     81e:	ff 92       	push	r15
     820:	0f 93       	push	r16
     822:	1f 93       	push	r17
     824:	cf 93       	push	r28
     826:	df 93       	push	r29
     828:	1f 92       	push	r1
     82a:	cd b7       	in	r28, 0x3d	; 61
     82c:	de b7       	in	r29, 0x3e	; 62
     82e:	d8 2e       	mov	r13, r24
	char commandString[1];
	sprintf(commandString, "%c", command);
     830:	1f 92       	push	r1
     832:	8f 93       	push	r24
     834:	25 e0       	ldi	r18, 0x05	; 5
     836:	32 e0       	ldi	r19, 0x02	; 2
     838:	3f 93       	push	r19
     83a:	2f 93       	push	r18
     83c:	ee 24       	eor	r14, r14
     83e:	e3 94       	inc	r14
     840:	f1 2c       	mov	r15, r1
     842:	ec 0e       	add	r14, r28
     844:	fd 1e       	adc	r15, r29
     846:	ff 92       	push	r15
     848:	ef 92       	push	r14
     84a:	0e 94 28 0b 	call	0x1650	; 0x1650 <sprintf>
	sprintf(comBuffer, START_CHAR);
     84e:	28 e0       	ldi	r18, 0x08	; 8
     850:	32 e0       	ldi	r19, 0x02	; 2
     852:	3f 93       	push	r19
     854:	2f 93       	push	r18
     856:	08 e3       	ldi	r16, 0x38	; 56
     858:	13 e0       	ldi	r17, 0x03	; 3
     85a:	1f 93       	push	r17
     85c:	0f 93       	push	r16
     85e:	0e 94 28 0b 	call	0x1650	; 0x1650 <sprintf>
	strcat(comBuffer, CLIENT_ID);
     862:	f8 01       	movw	r30, r16
     864:	01 90       	ld	r0, Z+
     866:	00 20       	and	r0, r0
     868:	e9 f7       	brne	.-6      	; 0x864 <SendCommand+0x4a>
     86a:	31 97       	sbiw	r30, 0x01	; 1
     86c:	40 e3       	ldi	r20, 0x30	; 48
     86e:	50 e3       	ldi	r21, 0x30	; 48
     870:	61 e3       	ldi	r22, 0x31	; 49
     872:	70 e0       	ldi	r23, 0x00	; 0
     874:	40 83       	st	Z, r20
     876:	51 83       	std	Z+1, r21	; 0x01
     878:	62 83       	std	Z+2, r22	; 0x02
     87a:	73 83       	std	Z+3, r23	; 0x03
	strcat(comBuffer, commandString);
     87c:	b7 01       	movw	r22, r14
     87e:	c8 01       	movw	r24, r16
     880:	0e 94 ce 0a 	call	0x159c	; 0x159c <strcat>
	switch(command)
     884:	0f b6       	in	r0, 0x3f	; 63
     886:	f8 94       	cli
     888:	de bf       	out	0x3e, r29	; 62
     88a:	0f be       	out	0x3f, r0	; 63
     88c:	cd bf       	out	0x3d, r28	; 61
     88e:	96 e5       	ldi	r25, 0x56	; 86
     890:	d9 12       	cpse	r13, r25
     892:	05 c0       	rjmp	.+10     	; 0x89e <SendCommand+0x84>
	{
		case 'V':
		{
			strcat(comBuffer, uID);
     894:	68 eb       	ldi	r22, 0xB8	; 184
     896:	73 e0       	ldi	r23, 0x03	; 3
     898:	c8 01       	movw	r24, r16
     89a:	0e 94 ce 0a 	call	0x159c	; 0x159c <strcat>
		}
		break;
	}
	strcat(comBuffer, STOP_CHAR);
     89e:	e8 e3       	ldi	r30, 0x38	; 56
     8a0:	f3 e0       	ldi	r31, 0x03	; 3
     8a2:	01 90       	ld	r0, Z+
     8a4:	00 20       	and	r0, r0
     8a6:	e9 f7       	brne	.-6      	; 0x8a2 <SendCommand+0x88>
     8a8:	31 97       	sbiw	r30, 0x01	; 1
     8aa:	8a e2       	ldi	r24, 0x2A	; 42
     8ac:	90 e0       	ldi	r25, 0x00	; 0
     8ae:	91 83       	std	Z+1, r25	; 0x01
     8b0:	80 83       	st	Z, r24
	UART_Transmit_String(comBuffer);
     8b2:	88 e3       	ldi	r24, 0x38	; 56
     8b4:	93 e0       	ldi	r25, 0x03	; 3
     8b6:	0e 94 1c 06 	call	0xc38	; 0xc38 <UART_Transmit_String>
	strcat(comBuffer, CLIENT_ID);
	strcat(comBuffer, commandString);
	strcat(comBuffer, uID);
	strcat(comBuffer, STOP_CHAR);
	UART_Transmit_String(comBuffer);*/
}
     8ba:	0f 90       	pop	r0
     8bc:	df 91       	pop	r29
     8be:	cf 91       	pop	r28
     8c0:	1f 91       	pop	r17
     8c2:	0f 91       	pop	r16
     8c4:	ff 90       	pop	r15
     8c6:	ef 90       	pop	r14
     8c8:	df 90       	pop	r13
     8ca:	08 95       	ret

000008cc <CardKnown>:

bool CardKnown()
{
     8cc:	cf 93       	push	r28
     8ce:	df 93       	push	r29
     8d0:	1f 92       	push	r1
     8d2:	cd b7       	in	r28, 0x3d	; 61
     8d4:	de b7       	in	r29, 0x3e	; 62
	char validate[1] = "0";
     8d6:	80 e3       	ldi	r24, 0x30	; 48
     8d8:	89 83       	std	Y+1, r24	; 0x01
	UART_Transmit_String(comBuffer); // validate packet*/
	//UART_Transmit_String("\n");
	//startReadTimeout = true;
	//while(!packetReceived || !readTimeout);
	//startReadTimeout = false;
	SendCommand(VALIDATE_CARD_COMMAND);
     8da:	86 e5       	ldi	r24, 0x56	; 86
     8dc:	0e 94 0d 04 	call	0x81a	; 0x81a <SendCommand>
	packetReceived = false;
     8e0:	10 92 c4 03 	sts	0x03C4, r1
	while(!packetReceived);
     8e4:	80 91 c4 03 	lds	r24, 0x03C4
     8e8:	88 23       	and	r24, r24
     8ea:	e1 f3       	breq	.-8      	; 0x8e4 <CardKnown+0x18>
	UART_Transmit_String("receiveBuffer content\n");
     8ec:	8b e0       	ldi	r24, 0x0B	; 11
     8ee:	92 e0       	ldi	r25, 0x02	; 2
     8f0:	0e 94 1c 06 	call	0xc38	; 0xc38 <UART_Transmit_String>
	UART_Transmit_String(receiveBuffer);
     8f4:	88 ef       	ldi	r24, 0xF8	; 248
     8f6:	92 e0       	ldi	r25, 0x02	; 2
     8f8:	0e 94 1c 06 	call	0xc38	; 0xc38 <UART_Transmit_String>
	strncpy(validate, receiveBuffer+5, 1);
     8fc:	41 e0       	ldi	r20, 0x01	; 1
     8fe:	50 e0       	ldi	r21, 0x00	; 0
     900:	6d ef       	ldi	r22, 0xFD	; 253
     902:	72 e0       	ldi	r23, 0x02	; 2
     904:	ce 01       	movw	r24, r28
     906:	01 96       	adiw	r24, 0x01	; 1
     908:	0e 94 e2 0a 	call	0x15c4	; 0x15c4 <strncpy>
	UART_Transmit_String("validate char\n");
     90c:	82 e2       	ldi	r24, 0x22	; 34
     90e:	92 e0       	ldi	r25, 0x02	; 2
     910:	0e 94 1c 06 	call	0xc38	; 0xc38 <UART_Transmit_String>
	UART_Transmit_String(validate);
     914:	ce 01       	movw	r24, r28
     916:	01 96       	adiw	r24, 0x01	; 1
     918:	0e 94 1c 06 	call	0xc38	; 0xc38 <UART_Transmit_String>
	sprintf(receiveBuffer, "0");
     91c:	e8 ef       	ldi	r30, 0xF8	; 248
     91e:	f2 e0       	ldi	r31, 0x02	; 2
     920:	80 e3       	ldi	r24, 0x30	; 48
     922:	90 e0       	ldi	r25, 0x00	; 0
     924:	91 83       	std	Z+1, r25	; 0x01
     926:	80 83       	st	Z, r24
	memset(&receiveBuffer[0], 0, strlen(receiveBuffer));
     928:	df 01       	movw	r26, r30
     92a:	0d 90       	ld	r0, X+
     92c:	00 20       	and	r0, r0
     92e:	e9 f7       	brne	.-6      	; 0x92a <__stack+0x2b>
     930:	11 97       	sbiw	r26, 0x01	; 1
     932:	ae 1b       	sub	r26, r30
     934:	bf 0b       	sbc	r27, r31
     936:	4a 2f       	mov	r20, r26
     938:	5b 2f       	mov	r21, r27
     93a:	60 e0       	ldi	r22, 0x00	; 0
     93c:	70 e0       	ldi	r23, 0x00	; 0
     93e:	8e 2f       	mov	r24, r30
     940:	9f 2f       	mov	r25, r31
     942:	0e 94 c7 0a 	call	0x158e	; 0x158e <memset>
	if (strcmp(validate,"T") == 0)
     946:	61 e3       	ldi	r22, 0x31	; 49
     948:	72 e0       	ldi	r23, 0x02	; 2
     94a:	ce 01       	movw	r24, r28
     94c:	01 96       	adiw	r24, 0x01	; 1
     94e:	0e 94 d9 0a 	call	0x15b2	; 0x15b2 <strcmp>
     952:	28 2f       	mov	r18, r24
     954:	39 2f       	mov	r19, r25
     956:	81 e0       	ldi	r24, 0x01	; 1
     958:	23 2b       	or	r18, r19
     95a:	09 f0       	breq	.+2      	; 0x95e <__stack+0x5f>
     95c:	80 e0       	ldi	r24, 0x00	; 0
	} 
	else
	{
		return false;
	}
}
     95e:	0f 90       	pop	r0
     960:	df 91       	pop	r29
     962:	cf 91       	pop	r28
     964:	08 95       	ret

00000966 <ValidatePassword>:

bool ValidatePassword()
{
	keypadActive = true;
     966:	81 e0       	ldi	r24, 0x01	; 1
     968:	80 93 c8 03 	sts	0x03C8, r24
	return true;
}
     96c:	08 95       	ret

0000096e <CarConnected>:

bool CarConnected()
{
	return true;
}
     96e:	81 e0       	ldi	r24, 0x01	; 1
     970:	08 95       	ret

00000972 <main>:
int main(void)
{
	double energy=0, power=0;
	uint16_t data=0, lastData=0;
	int preState = 99;
	SPI_MasterInit();
     972:	0e 94 9d 01 	call	0x33a	; 0x33a <SPI_MasterInit>
	UART_Init();
     976:	0e 94 07 06 	call	0xc0e	; 0xc0e <UART_Init>
	RFID_init();
     97a:	0e 94 a8 01 	call	0x350	; 0x350 <RFID_init>
	Timer_init();
     97e:	0e 94 5b 02 	call	0x4b6	; 0x4b6 <Timer_init>
	Disp_init();
     982:	0e 94 12 01 	call	0x224	; 0x224 <Disp_init>
	ADC_init();
     986:	0e 94 d4 00 	call	0x1a8	; 0x1a8 <ADC_init>
	sei();
     98a:	78 94       	sei
	Disp_printString("x");
     98c:	81 ea       	ldi	r24, 0xA1	; 161
     98e:	91 e0       	ldi	r25, 0x01	; 1
     990:	0e 94 8a 01 	call	0x314	; 0x314 <Disp_printString>
	//Disp_printString(arrayTest);
	//UART_Transmit_String(displayBuffer);
	//unsigned char testSprintf[20];
	//sprintf(testSprintf,"test text here1"); // make string
	//Disp_printString(testSprintf);
	UART_Transmit_String("Card test \n");
     994:	83 e3       	ldi	r24, 0x33	; 51
     996:	92 e0       	ldi	r25, 0x02	; 2
     998:	0e 94 1c 06 	call	0xc38	; 0xc38 <UART_Transmit_String>

int main(void)
{
	double energy=0, power=0;
	uint16_t data=0, lastData=0;
	int preState = 99;
     99c:	23 e6       	ldi	r18, 0x63	; 99
     99e:	30 e0       	ldi	r19, 0x00	; 0
				case stateWrongPassword:
				{
					UART_Transmit_String("stateWrongPassword \n");
					Disp_printState(state);
					preState = state;
					state = stateTypePassword;
     9a0:	c3 e0       	ldi	r28, 0x03	; 3
     9a2:	d0 e0       	ldi	r29, 0x00	; 0
					preState = state;
					//state = stateIdle;
				}
				break;
				
				default : state=stateErrorState; break;
     9a4:	0e e0       	ldi	r16, 0x0E	; 14
     9a6:	10 e0       	ldi	r17, 0x00	; 0
					UART_Transmit_String("stateConnectCar \n");
					Disp_printState(state);
					if (CarConnected())
					{
						preState = state;
						state = stateCharging;
     9a8:	0f 2e       	mov	r0, r31
     9aa:	f5 e0       	ldi	r31, 0x05	; 5
     9ac:	cf 2e       	mov	r12, r31
     9ae:	d1 2c       	mov	r13, r1
     9b0:	f0 2d       	mov	r31, r0
							state = stateTypePassword;
						}
						else
						{
							preState = state;
							state = stateUnknownCard;
     9b2:	0f 2e       	mov	r0, r31
     9b4:	fa e0       	ldi	r31, 0x0A	; 10
     9b6:	8f 2e       	mov	r8, r31
     9b8:	91 2c       	mov	r9, r1
     9ba:	f0 2d       	mov	r31, r0
						}
					}
					else
					{
						preState = state;
						state = stateWrongPassword;
     9bc:	68 94       	set
     9be:	ee 24       	eor	r14, r14
     9c0:	e2 f8       	bld	r14, 2
     9c2:	f1 2c       	mov	r15, r1
					if (ValidatePassword())// Get typed password and validate in database
					{
						if (ADC_Sample() < 10)
						{
							preState = state;
							state = stateConnectCar;
     9c4:	0f 2e       	mov	r0, r31
     9c6:	fd e0       	ldi	r31, 0x0D	; 13
     9c8:	6f 2e       	mov	r6, r31
     9ca:	71 2c       	mov	r7, r1
     9cc:	f0 2d       	mov	r31, r0
					if(cardPresent)
					{
						UART_Transmit_String("Card Present \n");
						GetUID();
						preState = state;
						state=stateCardSwiped;
     9ce:	68 94       	set
     9d0:	aa 24       	eor	r10, r10
     9d2:	a1 f8       	bld	r10, 1
     9d4:	b1 2c       	mov	r11, r1
     9d6:	01 c0       	rjmp	.+2      	; 0x9da <main+0x68>
	//sprintf(testSprintf,"test text here1"); // make string
	//Disp_printString(testSprintf);
	UART_Transmit_String("Card test \n");
	while(1)
	{
		if ((state != preState) || (cardPresent && (state == stateIdle)))
     9d8:	9c 01       	movw	r18, r24
     9da:	80 91 ce 03 	lds	r24, 0x03CE
     9de:	90 91 cf 03 	lds	r25, 0x03CF
     9e2:	82 17       	cp	r24, r18
     9e4:	93 07       	cpc	r25, r19
     9e6:	41 f4       	brne	.+16     	; 0x9f8 <main+0x86>
     9e8:	20 91 ca 03 	lds	r18, 0x03CA
     9ec:	22 23       	and	r18, r18
     9ee:	a1 f3       	breq	.-24     	; 0x9d8 <main+0x66>
     9f0:	00 97       	sbiw	r24, 0x00	; 0
     9f2:	01 f1       	breq	.+64     	; 0xa34 <main+0xc2>
     9f4:	9c 01       	movw	r18, r24
     9f6:	f1 cf       	rjmp	.-30     	; 0x9da <main+0x68>
		{
			switch(state)
     9f8:	84 30       	cpi	r24, 0x04	; 4
     9fa:	91 05       	cpc	r25, r1
     9fc:	09 f4       	brne	.+2      	; 0xa00 <main+0x8e>
     9fe:	b1 c0       	rjmp	.+354    	; 0xb62 <main+0x1f0>
     a00:	44 f4       	brge	.+16     	; 0xa12 <main+0xa0>
     a02:	82 30       	cpi	r24, 0x02	; 2
     a04:	91 05       	cpc	r25, r1
     a06:	c1 f1       	breq	.+112    	; 0xa78 <main+0x106>
     a08:	0c f0       	brlt	.+2      	; 0xa0c <main+0x9a>
     a0a:	6b c0       	rjmp	.+214    	; 0xae2 <main+0x170>
     a0c:	89 2b       	or	r24, r25
     a0e:	91 f0       	breq	.+36     	; 0xa34 <main+0xc2>
     a10:	f9 c0       	rjmp	.+498    	; 0xc04 <main+0x292>
     a12:	8a 30       	cpi	r24, 0x0A	; 10
     a14:	91 05       	cpc	r25, r1
     a16:	09 f4       	brne	.+2      	; 0xa1a <main+0xa8>
     a18:	91 c0       	rjmp	.+290    	; 0xb3c <main+0x1ca>
     a1a:	24 f4       	brge	.+8      	; 0xa24 <main+0xb2>
     a1c:	05 97       	sbiw	r24, 0x05	; 5
     a1e:	09 f0       	breq	.+2      	; 0xa22 <main+0xb0>
     a20:	f1 c0       	rjmp	.+482    	; 0xc04 <main+0x292>
     a22:	d2 c0       	rjmp	.+420    	; 0xbc8 <main+0x256>
     a24:	8d 30       	cpi	r24, 0x0D	; 13
     a26:	91 05       	cpc	r25, r1
     a28:	09 f4       	brne	.+2      	; 0xa2c <main+0xba>
     a2a:	ae c0       	rjmp	.+348    	; 0xb88 <main+0x216>
     a2c:	0e 97       	sbiw	r24, 0x0e	; 14
     a2e:	09 f0       	breq	.+2      	; 0xa32 <main+0xc0>
     a30:	e9 c0       	rjmp	.+466    	; 0xc04 <main+0x292>
     a32:	d9 c0       	rjmp	.+434    	; 0xbe6 <main+0x274>
			{
				case stateIdle :
				{
					UART_Transmit_String("stateIdle \n");
     a34:	8f e3       	ldi	r24, 0x3F	; 63
     a36:	92 e0       	ldi	r25, 0x02	; 2
     a38:	0e 94 1c 06 	call	0xc38	; 0xc38 <UART_Transmit_String>
					Disp_printState(state);
     a3c:	80 91 ce 03 	lds	r24, 0x03CE
     a40:	90 91 cf 03 	lds	r25, 0x03CF
     a44:	0e 94 68 02 	call	0x4d0	; 0x4d0 <Disp_printState>
					if(cardPresent)
     a48:	80 91 ca 03 	lds	r24, 0x03CA
     a4c:	88 23       	and	r24, r24
     a4e:	79 f0       	breq	.+30     	; 0xa6e <main+0xfc>
					{
						UART_Transmit_String("Card Present \n");
     a50:	8b e4       	ldi	r24, 0x4B	; 75
     a52:	92 e0       	ldi	r25, 0x02	; 2
     a54:	0e 94 1c 06 	call	0xc38	; 0xc38 <UART_Transmit_String>
						GetUID();
     a58:	0e 94 70 03 	call	0x6e0	; 0x6e0 <GetUID>
						preState = state;
     a5c:	20 91 ce 03 	lds	r18, 0x03CE
     a60:	30 91 cf 03 	lds	r19, 0x03CF
						state=stateCardSwiped;
     a64:	b0 92 cf 03 	sts	0x03CF, r11
     a68:	a0 92 ce 03 	sts	0x03CE, r10
     a6c:	b6 cf       	rjmp	.-148    	; 0x9da <main+0x68>
					}
					else preState = state;
     a6e:	20 91 ce 03 	lds	r18, 0x03CE
     a72:	30 91 cf 03 	lds	r19, 0x03CF
     a76:	b1 cf       	rjmp	.-158    	; 0x9da <main+0x68>
				}
				break;
				
				case stateCardSwiped :
				{
					UART_Transmit_String("stateCardSwiped \n");
     a78:	8a e5       	ldi	r24, 0x5A	; 90
     a7a:	92 e0       	ldi	r25, 0x02	; 2
     a7c:	0e 94 1c 06 	call	0xc38	; 0xc38 <UART_Transmit_String>
					if (gotUID)
     a80:	80 91 c7 03 	lds	r24, 0x03C7
     a84:	88 23       	and	r24, r24
     a86:	e1 f0       	breq	.+56     	; 0xac0 <main+0x14e>
					{
						UART_Transmit_String("got UID \n");
     a88:	8c e6       	ldi	r24, 0x6C	; 108
     a8a:	92 e0       	ldi	r25, 0x02	; 2
     a8c:	0e 94 1c 06 	call	0xc38	; 0xc38 <UART_Transmit_String>
						if (CardKnown()) // Find card ID in database
     a90:	0e 94 66 04 	call	0x8cc	; 0x8cc <CardKnown>
     a94:	88 23       	and	r24, r24
     a96:	49 f0       	breq	.+18     	; 0xaaa <main+0x138>
						{
							preState = state;
     a98:	20 91 ce 03 	lds	r18, 0x03CE
     a9c:	30 91 cf 03 	lds	r19, 0x03CF
							state = stateTypePassword;
     aa0:	d0 93 cf 03 	sts	0x03CF, r29
     aa4:	c0 93 ce 03 	sts	0x03CE, r28
     aa8:	08 c0       	rjmp	.+16     	; 0xaba <main+0x148>
						}
						else
						{
							preState = state;
     aaa:	20 91 ce 03 	lds	r18, 0x03CE
     aae:	30 91 cf 03 	lds	r19, 0x03CF
							state = stateUnknownCard;
     ab2:	90 92 cf 03 	sts	0x03CF, r9
     ab6:	80 92 ce 03 	sts	0x03CE, r8
						}
						gotUID = false;
     aba:	10 92 c7 03 	sts	0x03C7, r1
     abe:	8d cf       	rjmp	.-230    	; 0x9da <main+0x68>
					}
					else
					{
						UART_Transmit_String("Did not get UID \n");
     ac0:	86 e7       	ldi	r24, 0x76	; 118
     ac2:	92 e0       	ldi	r25, 0x02	; 2
     ac4:	0e 94 1c 06 	call	0xc38	; 0xc38 <UART_Transmit_String>
						Disp_printState(stateCardReadError);
     ac8:	8c e0       	ldi	r24, 0x0C	; 12
     aca:	90 e0       	ldi	r25, 0x00	; 0
     acc:	0e 94 68 02 	call	0x4d0	; 0x4d0 <Disp_printState>
						preState = state;
     ad0:	20 91 ce 03 	lds	r18, 0x03CE
     ad4:	30 91 cf 03 	lds	r19, 0x03CF
						state = stateIdle;
     ad8:	10 92 cf 03 	sts	0x03CF, r1
     adc:	10 92 ce 03 	sts	0x03CE, r1
     ae0:	7c cf       	rjmp	.-264    	; 0x9da <main+0x68>
				}
				break;
				
				case stateTypePassword:
				{
					UART_Transmit_String("stateTypePassword \n");
     ae2:	88 e8       	ldi	r24, 0x88	; 136
     ae4:	92 e0       	ldi	r25, 0x02	; 2
     ae6:	0e 94 1c 06 	call	0xc38	; 0xc38 <UART_Transmit_String>
					Disp_printState(state);
     aea:	80 91 ce 03 	lds	r24, 0x03CE
     aee:	90 91 cf 03 	lds	r25, 0x03CF
     af2:	0e 94 68 02 	call	0x4d0	; 0x4d0 <Disp_printState>
					if (ValidatePassword())// Get typed password and validate in database
     af6:	0e 94 b3 04 	call	0x966	; 0x966 <ValidatePassword>
     afa:	88 23       	and	r24, r24
     afc:	b1 f0       	breq	.+44     	; 0xb2a <main+0x1b8>
					{
						if (ADC_Sample() < 10)
     afe:	0e 94 e5 00 	call	0x1ca	; 0x1ca <ADC_Sample>
     b02:	0a 97       	sbiw	r24, 0x0a	; 10
     b04:	48 f4       	brcc	.+18     	; 0xb18 <main+0x1a6>
						{
							preState = state;
     b06:	20 91 ce 03 	lds	r18, 0x03CE
     b0a:	30 91 cf 03 	lds	r19, 0x03CF
							state = stateConnectCar;
     b0e:	70 92 cf 03 	sts	0x03CF, r7
     b12:	60 92 ce 03 	sts	0x03CE, r6
     b16:	61 cf       	rjmp	.-318    	; 0x9da <main+0x68>
						}
						else
						{
							preState = state;
     b18:	20 91 ce 03 	lds	r18, 0x03CE
     b1c:	30 91 cf 03 	lds	r19, 0x03CF
							state = stateCharging;
     b20:	d0 92 cf 03 	sts	0x03CF, r13
     b24:	c0 92 ce 03 	sts	0x03CE, r12
     b28:	58 cf       	rjmp	.-336    	; 0x9da <main+0x68>
						}
					}
					else
					{
						preState = state;
     b2a:	20 91 ce 03 	lds	r18, 0x03CE
     b2e:	30 91 cf 03 	lds	r19, 0x03CF
						state = stateWrongPassword;
     b32:	f0 92 cf 03 	sts	0x03CF, r15
     b36:	e0 92 ce 03 	sts	0x03CE, r14
     b3a:	4f cf       	rjmp	.-354    	; 0x9da <main+0x68>
				}
				break;
				
				case stateUnknownCard:
				{
					UART_Transmit_String("stateUnknownCard \n");
     b3c:	8c e9       	ldi	r24, 0x9C	; 156
     b3e:	92 e0       	ldi	r25, 0x02	; 2
     b40:	0e 94 1c 06 	call	0xc38	; 0xc38 <UART_Transmit_String>
					Disp_printState(state);
     b44:	80 91 ce 03 	lds	r24, 0x03CE
     b48:	90 91 cf 03 	lds	r25, 0x03CF
     b4c:	0e 94 68 02 	call	0x4d0	; 0x4d0 <Disp_printState>
					preState = state;
     b50:	20 91 ce 03 	lds	r18, 0x03CE
     b54:	30 91 cf 03 	lds	r19, 0x03CF
					state = stateIdle;
     b58:	10 92 cf 03 	sts	0x03CF, r1
     b5c:	10 92 ce 03 	sts	0x03CE, r1
				}
				break;
     b60:	3c cf       	rjmp	.-392    	; 0x9da <main+0x68>
				
				case stateWrongPassword:
				{
					UART_Transmit_String("stateWrongPassword \n");
     b62:	8f ea       	ldi	r24, 0xAF	; 175
     b64:	92 e0       	ldi	r25, 0x02	; 2
     b66:	0e 94 1c 06 	call	0xc38	; 0xc38 <UART_Transmit_String>
					Disp_printState(state);
     b6a:	80 91 ce 03 	lds	r24, 0x03CE
     b6e:	90 91 cf 03 	lds	r25, 0x03CF
     b72:	0e 94 68 02 	call	0x4d0	; 0x4d0 <Disp_printState>
					preState = state;
     b76:	20 91 ce 03 	lds	r18, 0x03CE
     b7a:	30 91 cf 03 	lds	r19, 0x03CF
					state = stateTypePassword;
     b7e:	d0 93 cf 03 	sts	0x03CF, r29
     b82:	c0 93 ce 03 	sts	0x03CE, r28
				}
				break;
     b86:	29 cf       	rjmp	.-430    	; 0x9da <main+0x68>
				
				case stateConnectCar:
				{
					UART_Transmit_String("stateConnectCar \n");
     b88:	84 ec       	ldi	r24, 0xC4	; 196
     b8a:	92 e0       	ldi	r25, 0x02	; 2
     b8c:	0e 94 1c 06 	call	0xc38	; 0xc38 <UART_Transmit_String>
					Disp_printState(state);
     b90:	80 91 ce 03 	lds	r24, 0x03CE
     b94:	90 91 cf 03 	lds	r25, 0x03CF
     b98:	0e 94 68 02 	call	0x4d0	; 0x4d0 <Disp_printState>
					if (CarConnected())
     b9c:	0e 94 b7 04 	call	0x96e	; 0x96e <CarConnected>
     ba0:	88 23       	and	r24, r24
     ba2:	49 f0       	breq	.+18     	; 0xbb6 <main+0x244>
					{
						preState = state;
     ba4:	20 91 ce 03 	lds	r18, 0x03CE
     ba8:	30 91 cf 03 	lds	r19, 0x03CF
						state = stateCharging;
     bac:	d0 92 cf 03 	sts	0x03CF, r13
     bb0:	c0 92 ce 03 	sts	0x03CE, r12
     bb4:	12 cf       	rjmp	.-476    	; 0x9da <main+0x68>
					}
					else
					{
						preState = state;
     bb6:	20 91 ce 03 	lds	r18, 0x03CE
     bba:	30 91 cf 03 	lds	r19, 0x03CF
						state = stateIdle;
     bbe:	10 92 cf 03 	sts	0x03CF, r1
     bc2:	10 92 ce 03 	sts	0x03CE, r1
     bc6:	09 cf       	rjmp	.-494    	; 0x9da <main+0x68>
				}
				break;
				
				case stateCharging:
				{
					UART_Transmit_String("stateCharging \n");
     bc8:	86 ed       	ldi	r24, 0xD6	; 214
     bca:	92 e0       	ldi	r25, 0x02	; 2
     bcc:	0e 94 1c 06 	call	0xc38	; 0xc38 <UART_Transmit_String>
					Disp_printState(state);
     bd0:	80 91 ce 03 	lds	r24, 0x03CE
     bd4:	90 91 cf 03 	lds	r25, 0x03CF
     bd8:	0e 94 68 02 	call	0x4d0	; 0x4d0 <Disp_printState>
					preState = state;
     bdc:	20 91 ce 03 	lds	r18, 0x03CE
     be0:	30 91 cf 03 	lds	r19, 0x03CF
					//state = stateIdle;
				}
				break;
     be4:	fa ce       	rjmp	.-524    	; 0x9da <main+0x68>
				
				case stateErrorState:
				{
					UART_Transmit_String("stateErrorState \n");
     be6:	86 ee       	ldi	r24, 0xE6	; 230
     be8:	92 e0       	ldi	r25, 0x02	; 2
     bea:	0e 94 1c 06 	call	0xc38	; 0xc38 <UART_Transmit_String>
					Disp_printState(state);
     bee:	80 91 ce 03 	lds	r24, 0x03CE
     bf2:	90 91 cf 03 	lds	r25, 0x03CF
     bf6:	0e 94 68 02 	call	0x4d0	; 0x4d0 <Disp_printState>
					preState = state;
     bfa:	20 91 ce 03 	lds	r18, 0x03CE
     bfe:	30 91 cf 03 	lds	r19, 0x03CF
					//state = stateIdle;
				}
				break;
     c02:	eb ce       	rjmp	.-554    	; 0x9da <main+0x68>
				
				default : state=stateErrorState; break;
     c04:	10 93 cf 03 	sts	0x03CF, r17
     c08:	00 93 ce 03 	sts	0x03CE, r16
     c0c:	e6 ce       	rjmp	.-564    	; 0x9da <main+0x68>

00000c0e <UART_Init>:

void UART_Init()
{
	//SREG = (1<<I); //Enable global interrupts // Same as: sei();
	/* Enable receiver and transmitter */
	UCSR0B = (1<<RXEN0)|(1<<TXEN0)|(1<<RXCIE0);
     c0e:	88 e9       	ldi	r24, 0x98	; 152
     c10:	80 93 c1 00 	sts	0x00C1, r24
	/* Set frame format: 8data, 1stop bit */
	UCSR0C = (1<<UCSZ00)|(1<<UCSZ01);
     c14:	86 e0       	ldi	r24, 0x06	; 6
     c16:	80 93 c2 00 	sts	0x00C2, r24
	UCSR0A = (1<<U2X0);//Double the USART Transmission Speed
     c1a:	82 e0       	ldi	r24, 0x02	; 2
     c1c:	80 93 c0 00 	sts	0x00C0, r24
	/* Set baud rate */
	//UBRR0H = (unsigned char)(baud>>8);
	UBRR0L = 0x67; // 19200
     c20:	87 e6       	ldi	r24, 0x67	; 103
     c22:	80 93 c4 00 	sts	0x00C4, r24
     c26:	08 95       	ret

00000c28 <UART_Transmit>:
}

void UART_Transmit(char data)
{
	/* Wait for empty transmit buffer */
	while ( !( UCSR0A & (1<<UDRE0)) );
     c28:	e0 ec       	ldi	r30, 0xC0	; 192
     c2a:	f0 e0       	ldi	r31, 0x00	; 0
     c2c:	90 81       	ld	r25, Z
     c2e:	95 ff       	sbrs	r25, 5
     c30:	fd cf       	rjmp	.-6      	; 0xc2c <UART_Transmit+0x4>
	/* Put data into buffer, sends the data */
	UDR0 = data;
     c32:	80 93 c6 00 	sts	0x00C6, r24
     c36:	08 95       	ret

00000c38 <UART_Transmit_String>:
}

void UART_Transmit_String(char *str)
{
     c38:	cf 93       	push	r28
     c3a:	df 93       	push	r29
     c3c:	ec 01       	movw	r28, r24
	while (*str > 0)              // Continue until the pointer reaches -
     c3e:	88 81       	ld	r24, Y
     c40:	88 23       	and	r24, r24
     c42:	31 f0       	breq	.+12     	; 0xc50 <UART_Transmit_String+0x18>
	while ( !( UCSR0A & (1<<UDRE0)) );
	/* Put data into buffer, sends the data */
	UDR0 = data;
}

void UART_Transmit_String(char *str)
     c44:	21 96       	adiw	r28, 0x01	; 1
{
	while (*str > 0)              // Continue until the pointer reaches -
	{                             // the zero termination of the string
		UART_Transmit(*str);      // Send the value of the pointer address
     c46:	0e 94 14 06 	call	0xc28	; 0xc28 <UART_Transmit>
	UDR0 = data;
}

void UART_Transmit_String(char *str)
{
	while (*str > 0)              // Continue until the pointer reaches -
     c4a:	89 91       	ld	r24, Y+
     c4c:	81 11       	cpse	r24, r1
     c4e:	fb cf       	rjmp	.-10     	; 0xc46 <UART_Transmit_String+0xe>
	{                             // the zero termination of the string
		UART_Transmit(*str);      // Send the value of the pointer address
		str++;                    // Increment pointer
	}
}
     c50:	df 91       	pop	r29
     c52:	cf 91       	pop	r28
     c54:	08 95       	ret

00000c56 <vfprintf>:
     c56:	a2 e1       	ldi	r26, 0x12	; 18
     c58:	b0 e0       	ldi	r27, 0x00	; 0
     c5a:	e1 e3       	ldi	r30, 0x31	; 49
     c5c:	f6 e0       	ldi	r31, 0x06	; 6
     c5e:	0c 94 ad 09 	jmp	0x135a	; 0x135a <__prologue_saves__>
     c62:	7c 01       	movw	r14, r24
     c64:	1b 01       	movw	r2, r22
     c66:	6a 01       	movw	r12, r20
     c68:	fc 01       	movw	r30, r24
     c6a:	17 82       	std	Z+7, r1	; 0x07
     c6c:	16 82       	std	Z+6, r1	; 0x06
     c6e:	83 81       	ldd	r24, Z+3	; 0x03
     c70:	81 fd       	sbrc	r24, 1
     c72:	03 c0       	rjmp	.+6      	; 0xc7a <vfprintf+0x24>
     c74:	6b c3       	rjmp	.+1750   	; 0x134c <vfprintf+0x6f6>
     c76:	65 01       	movw	r12, r10
     c78:	05 c0       	rjmp	.+10     	; 0xc84 <vfprintf+0x2e>
     c7a:	88 24       	eor	r8, r8
     c7c:	83 94       	inc	r8
     c7e:	91 2c       	mov	r9, r1
     c80:	8c 0e       	add	r8, r28
     c82:	9d 1e       	adc	r9, r29
     c84:	f7 01       	movw	r30, r14
     c86:	93 81       	ldd	r25, Z+3	; 0x03
     c88:	f1 01       	movw	r30, r2
     c8a:	93 fd       	sbrc	r25, 3
     c8c:	85 91       	lpm	r24, Z+
     c8e:	93 ff       	sbrs	r25, 3
     c90:	81 91       	ld	r24, Z+
     c92:	1f 01       	movw	r2, r30
     c94:	88 23       	and	r24, r24
     c96:	09 f4       	brne	.+2      	; 0xc9a <vfprintf+0x44>
     c98:	55 c3       	rjmp	.+1706   	; 0x1344 <vfprintf+0x6ee>
     c9a:	85 32       	cpi	r24, 0x25	; 37
     c9c:	39 f4       	brne	.+14     	; 0xcac <vfprintf+0x56>
     c9e:	93 fd       	sbrc	r25, 3
     ca0:	85 91       	lpm	r24, Z+
     ca2:	93 ff       	sbrs	r25, 3
     ca4:	81 91       	ld	r24, Z+
     ca6:	1f 01       	movw	r2, r30
     ca8:	85 32       	cpi	r24, 0x25	; 37
     caa:	31 f4       	brne	.+12     	; 0xcb8 <vfprintf+0x62>
     cac:	b7 01       	movw	r22, r14
     cae:	90 e0       	ldi	r25, 0x00	; 0
     cb0:	0e 94 fc 0a 	call	0x15f8	; 0x15f8 <fputc>
     cb4:	56 01       	movw	r10, r12
     cb6:	df cf       	rjmp	.-66     	; 0xc76 <vfprintf+0x20>
     cb8:	71 2c       	mov	r7, r1
     cba:	61 2c       	mov	r6, r1
     cbc:	20 e0       	ldi	r18, 0x00	; 0
     cbe:	20 32       	cpi	r18, 0x20	; 32
     cc0:	a8 f4       	brcc	.+42     	; 0xcec <vfprintf+0x96>
     cc2:	8b 32       	cpi	r24, 0x2B	; 43
     cc4:	61 f0       	breq	.+24     	; 0xcde <vfprintf+0x88>
     cc6:	28 f4       	brcc	.+10     	; 0xcd2 <vfprintf+0x7c>
     cc8:	80 32       	cpi	r24, 0x20	; 32
     cca:	51 f0       	breq	.+20     	; 0xce0 <vfprintf+0x8a>
     ccc:	83 32       	cpi	r24, 0x23	; 35
     cce:	71 f4       	brne	.+28     	; 0xcec <vfprintf+0x96>
     cd0:	0b c0       	rjmp	.+22     	; 0xce8 <vfprintf+0x92>
     cd2:	8d 32       	cpi	r24, 0x2D	; 45
     cd4:	39 f0       	breq	.+14     	; 0xce4 <vfprintf+0x8e>
     cd6:	80 33       	cpi	r24, 0x30	; 48
     cd8:	49 f4       	brne	.+18     	; 0xcec <vfprintf+0x96>
     cda:	21 60       	ori	r18, 0x01	; 1
     cdc:	28 c0       	rjmp	.+80     	; 0xd2e <vfprintf+0xd8>
     cde:	22 60       	ori	r18, 0x02	; 2
     ce0:	24 60       	ori	r18, 0x04	; 4
     ce2:	25 c0       	rjmp	.+74     	; 0xd2e <vfprintf+0xd8>
     ce4:	28 60       	ori	r18, 0x08	; 8
     ce6:	23 c0       	rjmp	.+70     	; 0xd2e <vfprintf+0xd8>
     ce8:	20 61       	ori	r18, 0x10	; 16
     cea:	21 c0       	rjmp	.+66     	; 0xd2e <vfprintf+0xd8>
     cec:	27 fd       	sbrc	r18, 7
     cee:	27 c0       	rjmp	.+78     	; 0xd3e <vfprintf+0xe8>
     cf0:	38 2f       	mov	r19, r24
     cf2:	30 53       	subi	r19, 0x30	; 48
     cf4:	3a 30       	cpi	r19, 0x0A	; 10
     cf6:	78 f4       	brcc	.+30     	; 0xd16 <vfprintf+0xc0>
     cf8:	26 ff       	sbrs	r18, 6
     cfa:	06 c0       	rjmp	.+12     	; 0xd08 <vfprintf+0xb2>
     cfc:	fa e0       	ldi	r31, 0x0A	; 10
     cfe:	7f 9e       	mul	r7, r31
     d00:	30 0d       	add	r19, r0
     d02:	11 24       	eor	r1, r1
     d04:	73 2e       	mov	r7, r19
     d06:	13 c0       	rjmp	.+38     	; 0xd2e <vfprintf+0xd8>
     d08:	4a e0       	ldi	r20, 0x0A	; 10
     d0a:	64 9e       	mul	r6, r20
     d0c:	30 0d       	add	r19, r0
     d0e:	11 24       	eor	r1, r1
     d10:	63 2e       	mov	r6, r19
     d12:	20 62       	ori	r18, 0x20	; 32
     d14:	0c c0       	rjmp	.+24     	; 0xd2e <vfprintf+0xd8>
     d16:	8e 32       	cpi	r24, 0x2E	; 46
     d18:	21 f4       	brne	.+8      	; 0xd22 <vfprintf+0xcc>
     d1a:	26 fd       	sbrc	r18, 6
     d1c:	13 c3       	rjmp	.+1574   	; 0x1344 <vfprintf+0x6ee>
     d1e:	20 64       	ori	r18, 0x40	; 64
     d20:	06 c0       	rjmp	.+12     	; 0xd2e <vfprintf+0xd8>
     d22:	8c 36       	cpi	r24, 0x6C	; 108
     d24:	11 f4       	brne	.+4      	; 0xd2a <vfprintf+0xd4>
     d26:	20 68       	ori	r18, 0x80	; 128
     d28:	02 c0       	rjmp	.+4      	; 0xd2e <vfprintf+0xd8>
     d2a:	88 36       	cpi	r24, 0x68	; 104
     d2c:	41 f4       	brne	.+16     	; 0xd3e <vfprintf+0xe8>
     d2e:	f1 01       	movw	r30, r2
     d30:	93 fd       	sbrc	r25, 3
     d32:	85 91       	lpm	r24, Z+
     d34:	93 ff       	sbrs	r25, 3
     d36:	81 91       	ld	r24, Z+
     d38:	1f 01       	movw	r2, r30
     d3a:	81 11       	cpse	r24, r1
     d3c:	c0 cf       	rjmp	.-128    	; 0xcbe <vfprintf+0x68>
     d3e:	98 2f       	mov	r25, r24
     d40:	95 54       	subi	r25, 0x45	; 69
     d42:	93 30       	cpi	r25, 0x03	; 3
     d44:	18 f4       	brcc	.+6      	; 0xd4c <vfprintf+0xf6>
     d46:	20 61       	ori	r18, 0x10	; 16
     d48:	80 5e       	subi	r24, 0xE0	; 224
     d4a:	06 c0       	rjmp	.+12     	; 0xd58 <vfprintf+0x102>
     d4c:	98 2f       	mov	r25, r24
     d4e:	95 56       	subi	r25, 0x65	; 101
     d50:	93 30       	cpi	r25, 0x03	; 3
     d52:	08 f0       	brcs	.+2      	; 0xd56 <vfprintf+0x100>
     d54:	a4 c1       	rjmp	.+840    	; 0x109e <vfprintf+0x448>
     d56:	2f 7e       	andi	r18, 0xEF	; 239
     d58:	26 fd       	sbrc	r18, 6
     d5a:	02 c0       	rjmp	.+4      	; 0xd60 <vfprintf+0x10a>
     d5c:	16 e0       	ldi	r17, 0x06	; 6
     d5e:	71 2e       	mov	r7, r17
     d60:	bf e3       	ldi	r27, 0x3F	; 63
     d62:	5b 2e       	mov	r5, r27
     d64:	52 22       	and	r5, r18
     d66:	85 36       	cpi	r24, 0x65	; 101
     d68:	19 f4       	brne	.+6      	; 0xd70 <vfprintf+0x11a>
     d6a:	f0 e4       	ldi	r31, 0x40	; 64
     d6c:	5f 2a       	or	r5, r31
     d6e:	07 c0       	rjmp	.+14     	; 0xd7e <vfprintf+0x128>
     d70:	86 36       	cpi	r24, 0x66	; 102
     d72:	19 f4       	brne	.+6      	; 0xd7a <vfprintf+0x124>
     d74:	40 e8       	ldi	r20, 0x80	; 128
     d76:	54 2a       	or	r5, r20
     d78:	02 c0       	rjmp	.+4      	; 0xd7e <vfprintf+0x128>
     d7a:	71 10       	cpse	r7, r1
     d7c:	7a 94       	dec	r7
     d7e:	57 fe       	sbrs	r5, 7
     d80:	07 c0       	rjmp	.+14     	; 0xd90 <vfprintf+0x13a>
     d82:	5b e3       	ldi	r21, 0x3B	; 59
     d84:	57 15       	cp	r21, r7
     d86:	48 f0       	brcs	.+18     	; 0xd9a <vfprintf+0x144>
     d88:	47 2c       	mov	r4, r7
     d8a:	43 94       	inc	r4
     d8c:	27 e0       	ldi	r18, 0x07	; 7
     d8e:	0d c0       	rjmp	.+26     	; 0xdaa <vfprintf+0x154>
     d90:	87 e0       	ldi	r24, 0x07	; 7
     d92:	87 15       	cp	r24, r7
     d94:	30 f0       	brcs	.+12     	; 0xda2 <vfprintf+0x14c>
     d96:	27 2d       	mov	r18, r7
     d98:	07 c0       	rjmp	.+14     	; 0xda8 <vfprintf+0x152>
     d9a:	27 e0       	ldi	r18, 0x07	; 7
     d9c:	ac e3       	ldi	r26, 0x3C	; 60
     d9e:	4a 2e       	mov	r4, r26
     da0:	04 c0       	rjmp	.+8      	; 0xdaa <vfprintf+0x154>
     da2:	27 e0       	ldi	r18, 0x07	; 7
     da4:	f7 e0       	ldi	r31, 0x07	; 7
     da6:	7f 2e       	mov	r7, r31
     da8:	41 2c       	mov	r4, r1
     daa:	56 01       	movw	r10, r12
     dac:	94 e0       	ldi	r25, 0x04	; 4
     dae:	a9 0e       	add	r10, r25
     db0:	b1 1c       	adc	r11, r1
     db2:	f6 01       	movw	r30, r12
     db4:	60 81       	ld	r22, Z
     db6:	71 81       	ldd	r23, Z+1	; 0x01
     db8:	82 81       	ldd	r24, Z+2	; 0x02
     dba:	93 81       	ldd	r25, Z+3	; 0x03
     dbc:	04 2d       	mov	r16, r4
     dbe:	a4 01       	movw	r20, r8
     dc0:	0e 94 e4 09 	call	0x13c8	; 0x13c8 <__ftoa_engine>
     dc4:	8c 01       	movw	r16, r24
     dc6:	49 81       	ldd	r20, Y+1	; 0x01
     dc8:	4c 87       	std	Y+12, r20	; 0x0c
     dca:	40 ff       	sbrs	r20, 0
     dcc:	02 c0       	rjmp	.+4      	; 0xdd2 <vfprintf+0x17c>
     dce:	43 ff       	sbrs	r20, 3
     dd0:	07 c0       	rjmp	.+14     	; 0xde0 <vfprintf+0x18a>
     dd2:	51 fc       	sbrc	r5, 1
     dd4:	08 c0       	rjmp	.+16     	; 0xde6 <vfprintf+0x190>
     dd6:	52 fe       	sbrs	r5, 2
     dd8:	09 c0       	rjmp	.+18     	; 0xdec <vfprintf+0x196>
     dda:	e0 e2       	ldi	r30, 0x20	; 32
     ddc:	de 2e       	mov	r13, r30
     dde:	07 c0       	rjmp	.+14     	; 0xdee <vfprintf+0x198>
     de0:	7d e2       	ldi	r23, 0x2D	; 45
     de2:	d7 2e       	mov	r13, r23
     de4:	04 c0       	rjmp	.+8      	; 0xdee <vfprintf+0x198>
     de6:	6b e2       	ldi	r22, 0x2B	; 43
     de8:	d6 2e       	mov	r13, r22
     dea:	01 c0       	rjmp	.+2      	; 0xdee <vfprintf+0x198>
     dec:	d1 2c       	mov	r13, r1
     dee:	8c 85       	ldd	r24, Y+12	; 0x0c
     df0:	8c 70       	andi	r24, 0x0C	; 12
     df2:	a1 f1       	breq	.+104    	; 0xe5c <vfprintf+0x206>
     df4:	dd 20       	and	r13, r13
     df6:	11 f0       	breq	.+4      	; 0xdfc <vfprintf+0x1a6>
     df8:	84 e0       	ldi	r24, 0x04	; 4
     dfa:	01 c0       	rjmp	.+2      	; 0xdfe <vfprintf+0x1a8>
     dfc:	83 e0       	ldi	r24, 0x03	; 3
     dfe:	86 15       	cp	r24, r6
     e00:	10 f0       	brcs	.+4      	; 0xe06 <vfprintf+0x1b0>
     e02:	61 2c       	mov	r6, r1
     e04:	0b c0       	rjmp	.+22     	; 0xe1c <vfprintf+0x1c6>
     e06:	68 1a       	sub	r6, r24
     e08:	53 fc       	sbrc	r5, 3
     e0a:	08 c0       	rjmp	.+16     	; 0xe1c <vfprintf+0x1c6>
     e0c:	b7 01       	movw	r22, r14
     e0e:	80 e2       	ldi	r24, 0x20	; 32
     e10:	90 e0       	ldi	r25, 0x00	; 0
     e12:	0e 94 fc 0a 	call	0x15f8	; 0x15f8 <fputc>
     e16:	6a 94       	dec	r6
     e18:	c9 f7       	brne	.-14     	; 0xe0c <vfprintf+0x1b6>
     e1a:	f3 cf       	rjmp	.-26     	; 0xe02 <vfprintf+0x1ac>
     e1c:	dd 20       	and	r13, r13
     e1e:	29 f0       	breq	.+10     	; 0xe2a <vfprintf+0x1d4>
     e20:	b7 01       	movw	r22, r14
     e22:	8d 2d       	mov	r24, r13
     e24:	90 e0       	ldi	r25, 0x00	; 0
     e26:	0e 94 fc 0a 	call	0x15f8	; 0x15f8 <fputc>
     e2a:	5c 85       	ldd	r21, Y+12	; 0x0c
     e2c:	53 fd       	sbrc	r21, 3
     e2e:	03 c0       	rjmp	.+6      	; 0xe36 <vfprintf+0x1e0>
     e30:	0c e6       	ldi	r16, 0x6C	; 108
     e32:	10 e0       	ldi	r17, 0x00	; 0
     e34:	0c c0       	rjmp	.+24     	; 0xe4e <vfprintf+0x1f8>
     e36:	08 e6       	ldi	r16, 0x68	; 104
     e38:	10 e0       	ldi	r17, 0x00	; 0
     e3a:	09 c0       	rjmp	.+18     	; 0xe4e <vfprintf+0x1f8>
     e3c:	51 10       	cpse	r5, r1
     e3e:	80 52       	subi	r24, 0x20	; 32
     e40:	b7 01       	movw	r22, r14
     e42:	90 e0       	ldi	r25, 0x00	; 0
     e44:	0e 94 fc 0a 	call	0x15f8	; 0x15f8 <fputc>
     e48:	0f 5f       	subi	r16, 0xFF	; 255
     e4a:	1f 4f       	sbci	r17, 0xFF	; 255
     e4c:	02 c0       	rjmp	.+4      	; 0xe52 <vfprintf+0x1fc>
     e4e:	80 e1       	ldi	r24, 0x10	; 16
     e50:	58 22       	and	r5, r24
     e52:	f8 01       	movw	r30, r16
     e54:	84 91       	lpm	r24, Z
     e56:	81 11       	cpse	r24, r1
     e58:	f1 cf       	rjmp	.-30     	; 0xe3c <vfprintf+0x1e6>
     e5a:	71 c2       	rjmp	.+1250   	; 0x133e <vfprintf+0x6e8>
     e5c:	57 fe       	sbrs	r5, 7
     e5e:	0e c0       	rjmp	.+28     	; 0xe7c <vfprintf+0x226>
     e60:	40 0e       	add	r4, r16
     e62:	4c 85       	ldd	r20, Y+12	; 0x0c
     e64:	44 ff       	sbrs	r20, 4
     e66:	04 c0       	rjmp	.+8      	; 0xe70 <vfprintf+0x21a>
     e68:	8a 81       	ldd	r24, Y+2	; 0x02
     e6a:	81 33       	cpi	r24, 0x31	; 49
     e6c:	09 f4       	brne	.+2      	; 0xe70 <vfprintf+0x21a>
     e6e:	4a 94       	dec	r4
     e70:	14 14       	cp	r1, r4
     e72:	4c f5       	brge	.+82     	; 0xec6 <vfprintf+0x270>
     e74:	58 e0       	ldi	r21, 0x08	; 8
     e76:	54 15       	cp	r21, r4
     e78:	48 f1       	brcs	.+82     	; 0xecc <vfprintf+0x276>
     e7a:	2c c0       	rjmp	.+88     	; 0xed4 <vfprintf+0x27e>
     e7c:	56 fc       	sbrc	r5, 6
     e7e:	2a c0       	rjmp	.+84     	; 0xed4 <vfprintf+0x27e>
     e80:	87 2d       	mov	r24, r7
     e82:	90 e0       	ldi	r25, 0x00	; 0
     e84:	80 17       	cp	r24, r16
     e86:	91 07       	cpc	r25, r17
     e88:	44 f0       	brlt	.+16     	; 0xe9a <vfprintf+0x244>
     e8a:	0c 3f       	cpi	r16, 0xFC	; 252
     e8c:	8f ef       	ldi	r24, 0xFF	; 255
     e8e:	18 07       	cpc	r17, r24
     e90:	24 f0       	brlt	.+8      	; 0xe9a <vfprintf+0x244>
     e92:	90 e8       	ldi	r25, 0x80	; 128
     e94:	59 2a       	or	r5, r25
     e96:	01 c0       	rjmp	.+2      	; 0xe9a <vfprintf+0x244>
     e98:	7a 94       	dec	r7
     e9a:	77 20       	and	r7, r7
     e9c:	49 f0       	breq	.+18     	; 0xeb0 <vfprintf+0x25a>
     e9e:	e2 e0       	ldi	r30, 0x02	; 2
     ea0:	f0 e0       	ldi	r31, 0x00	; 0
     ea2:	ec 0f       	add	r30, r28
     ea4:	fd 1f       	adc	r31, r29
     ea6:	e7 0d       	add	r30, r7
     ea8:	f1 1d       	adc	r31, r1
     eaa:	80 81       	ld	r24, Z
     eac:	80 33       	cpi	r24, 0x30	; 48
     eae:	a1 f3       	breq	.-24     	; 0xe98 <vfprintf+0x242>
     eb0:	57 fe       	sbrs	r5, 7
     eb2:	10 c0       	rjmp	.+32     	; 0xed4 <vfprintf+0x27e>
     eb4:	47 2c       	mov	r4, r7
     eb6:	43 94       	inc	r4
     eb8:	87 2d       	mov	r24, r7
     eba:	90 e0       	ldi	r25, 0x00	; 0
     ebc:	08 17       	cp	r16, r24
     ebe:	19 07       	cpc	r17, r25
     ec0:	44 f4       	brge	.+16     	; 0xed2 <vfprintf+0x27c>
     ec2:	70 1a       	sub	r7, r16
     ec4:	07 c0       	rjmp	.+14     	; 0xed4 <vfprintf+0x27e>
     ec6:	44 24       	eor	r4, r4
     ec8:	43 94       	inc	r4
     eca:	04 c0       	rjmp	.+8      	; 0xed4 <vfprintf+0x27e>
     ecc:	58 e0       	ldi	r21, 0x08	; 8
     ece:	45 2e       	mov	r4, r21
     ed0:	01 c0       	rjmp	.+2      	; 0xed4 <vfprintf+0x27e>
     ed2:	71 2c       	mov	r7, r1
     ed4:	57 fe       	sbrs	r5, 7
     ed6:	07 c0       	rjmp	.+14     	; 0xee6 <vfprintf+0x290>
     ed8:	10 16       	cp	r1, r16
     eda:	11 06       	cpc	r1, r17
     edc:	3c f4       	brge	.+14     	; 0xeec <vfprintf+0x296>
     ede:	98 01       	movw	r18, r16
     ee0:	2f 5f       	subi	r18, 0xFF	; 255
     ee2:	3f 4f       	sbci	r19, 0xFF	; 255
     ee4:	05 c0       	rjmp	.+10     	; 0xef0 <vfprintf+0x29a>
     ee6:	25 e0       	ldi	r18, 0x05	; 5
     ee8:	30 e0       	ldi	r19, 0x00	; 0
     eea:	02 c0       	rjmp	.+4      	; 0xef0 <vfprintf+0x29a>
     eec:	21 e0       	ldi	r18, 0x01	; 1
     eee:	30 e0       	ldi	r19, 0x00	; 0
     ef0:	dd 20       	and	r13, r13
     ef2:	11 f0       	breq	.+4      	; 0xef8 <vfprintf+0x2a2>
     ef4:	2f 5f       	subi	r18, 0xFF	; 255
     ef6:	3f 4f       	sbci	r19, 0xFF	; 255
     ef8:	77 20       	and	r7, r7
     efa:	31 f0       	breq	.+12     	; 0xf08 <vfprintf+0x2b2>
     efc:	47 2d       	mov	r20, r7
     efe:	50 e0       	ldi	r21, 0x00	; 0
     f00:	4f 5f       	subi	r20, 0xFF	; 255
     f02:	5f 4f       	sbci	r21, 0xFF	; 255
     f04:	24 0f       	add	r18, r20
     f06:	35 1f       	adc	r19, r21
     f08:	46 2d       	mov	r20, r6
     f0a:	50 e0       	ldi	r21, 0x00	; 0
     f0c:	24 17       	cp	r18, r20
     f0e:	35 07       	cpc	r19, r21
     f10:	14 f4       	brge	.+4      	; 0xf16 <vfprintf+0x2c0>
     f12:	62 1a       	sub	r6, r18
     f14:	01 c0       	rjmp	.+2      	; 0xf18 <vfprintf+0x2c2>
     f16:	61 2c       	mov	r6, r1
     f18:	85 2d       	mov	r24, r5
     f1a:	89 70       	andi	r24, 0x09	; 9
     f1c:	49 f4       	brne	.+18     	; 0xf30 <vfprintf+0x2da>
     f1e:	06 c0       	rjmp	.+12     	; 0xf2c <vfprintf+0x2d6>
     f20:	b7 01       	movw	r22, r14
     f22:	80 e2       	ldi	r24, 0x20	; 32
     f24:	90 e0       	ldi	r25, 0x00	; 0
     f26:	0e 94 fc 0a 	call	0x15f8	; 0x15f8 <fputc>
     f2a:	6a 94       	dec	r6
     f2c:	61 10       	cpse	r6, r1
     f2e:	f8 cf       	rjmp	.-16     	; 0xf20 <vfprintf+0x2ca>
     f30:	dd 20       	and	r13, r13
     f32:	29 f0       	breq	.+10     	; 0xf3e <vfprintf+0x2e8>
     f34:	b7 01       	movw	r22, r14
     f36:	8d 2d       	mov	r24, r13
     f38:	90 e0       	ldi	r25, 0x00	; 0
     f3a:	0e 94 fc 0a 	call	0x15f8	; 0x15f8 <fputc>
     f3e:	53 fc       	sbrc	r5, 3
     f40:	09 c0       	rjmp	.+18     	; 0xf54 <vfprintf+0x2fe>
     f42:	06 c0       	rjmp	.+12     	; 0xf50 <vfprintf+0x2fa>
     f44:	b7 01       	movw	r22, r14
     f46:	80 e3       	ldi	r24, 0x30	; 48
     f48:	90 e0       	ldi	r25, 0x00	; 0
     f4a:	0e 94 fc 0a 	call	0x15f8	; 0x15f8 <fputc>
     f4e:	6a 94       	dec	r6
     f50:	61 10       	cpse	r6, r1
     f52:	f8 cf       	rjmp	.-16     	; 0xf44 <vfprintf+0x2ee>
     f54:	57 fe       	sbrs	r5, 7
     f56:	56 c0       	rjmp	.+172    	; 0x1004 <vfprintf+0x3ae>
     f58:	68 01       	movw	r12, r16
     f5a:	17 ff       	sbrs	r17, 7
     f5c:	02 c0       	rjmp	.+4      	; 0xf62 <vfprintf+0x30c>
     f5e:	c1 2c       	mov	r12, r1
     f60:	d1 2c       	mov	r13, r1
     f62:	20 e0       	ldi	r18, 0x00	; 0
     f64:	30 e0       	ldi	r19, 0x00	; 0
     f66:	a8 01       	movw	r20, r16
     f68:	44 19       	sub	r20, r4
     f6a:	51 09       	sbc	r21, r1
     f6c:	5e 87       	std	Y+14, r21	; 0x0e
     f6e:	4d 87       	std	Y+13, r20	; 0x0d
     f70:	28 01       	movw	r4, r16
     f72:	4c 18       	sub	r4, r12
     f74:	5d 08       	sbc	r5, r13
     f76:	48 0c       	add	r4, r8
     f78:	59 1c       	adc	r5, r9
     f7a:	87 2d       	mov	r24, r7
     f7c:	90 e0       	ldi	r25, 0x00	; 0
     f7e:	44 27       	eor	r20, r20
     f80:	55 27       	eor	r21, r21
     f82:	48 1b       	sub	r20, r24
     f84:	59 0b       	sbc	r21, r25
     f86:	58 8b       	std	Y+16, r21	; 0x10
     f88:	4f 87       	std	Y+15, r20	; 0x0f
     f8a:	5f ef       	ldi	r21, 0xFF	; 255
     f8c:	c5 16       	cp	r12, r21
     f8e:	d5 06       	cpc	r13, r21
     f90:	49 f4       	brne	.+18     	; 0xfa4 <vfprintf+0x34e>
     f92:	b7 01       	movw	r22, r14
     f94:	8e e2       	ldi	r24, 0x2E	; 46
     f96:	90 e0       	ldi	r25, 0x00	; 0
     f98:	2a 8b       	std	Y+18, r18	; 0x12
     f9a:	39 8b       	std	Y+17, r19	; 0x11
     f9c:	0e 94 fc 0a 	call	0x15f8	; 0x15f8 <fputc>
     fa0:	39 89       	ldd	r19, Y+17	; 0x11
     fa2:	2a 89       	ldd	r18, Y+18	; 0x12
     fa4:	0c 15       	cp	r16, r12
     fa6:	1d 05       	cpc	r17, r13
     fa8:	54 f0       	brlt	.+20     	; 0xfbe <vfprintf+0x368>
     faa:	4d 85       	ldd	r20, Y+13	; 0x0d
     fac:	5e 85       	ldd	r21, Y+14	; 0x0e
     fae:	4c 15       	cp	r20, r12
     fb0:	5d 05       	cpc	r21, r13
     fb2:	2c f4       	brge	.+10     	; 0xfbe <vfprintf+0x368>
     fb4:	f2 01       	movw	r30, r4
     fb6:	e2 0f       	add	r30, r18
     fb8:	f3 1f       	adc	r31, r19
     fba:	81 81       	ldd	r24, Z+1	; 0x01
     fbc:	01 c0       	rjmp	.+2      	; 0xfc0 <vfprintf+0x36a>
     fbe:	80 e3       	ldi	r24, 0x30	; 48
     fc0:	51 e0       	ldi	r21, 0x01	; 1
     fc2:	c5 1a       	sub	r12, r21
     fc4:	d1 08       	sbc	r13, r1
     fc6:	2f 5f       	subi	r18, 0xFF	; 255
     fc8:	3f 4f       	sbci	r19, 0xFF	; 255
     fca:	4f 85       	ldd	r20, Y+15	; 0x0f
     fcc:	58 89       	ldd	r21, Y+16	; 0x10
     fce:	c4 16       	cp	r12, r20
     fd0:	d5 06       	cpc	r13, r21
     fd2:	4c f0       	brlt	.+18     	; 0xfe6 <vfprintf+0x390>
     fd4:	b7 01       	movw	r22, r14
     fd6:	90 e0       	ldi	r25, 0x00	; 0
     fd8:	2a 8b       	std	Y+18, r18	; 0x12
     fda:	39 8b       	std	Y+17, r19	; 0x11
     fdc:	0e 94 fc 0a 	call	0x15f8	; 0x15f8 <fputc>
     fe0:	2a 89       	ldd	r18, Y+18	; 0x12
     fe2:	39 89       	ldd	r19, Y+17	; 0x11
     fe4:	d2 cf       	rjmp	.-92     	; 0xf8a <vfprintf+0x334>
     fe6:	c0 16       	cp	r12, r16
     fe8:	d1 06       	cpc	r13, r17
     fea:	49 f4       	brne	.+18     	; 0xffe <vfprintf+0x3a8>
     fec:	9a 81       	ldd	r25, Y+2	; 0x02
     fee:	96 33       	cpi	r25, 0x36	; 54
     ff0:	28 f4       	brcc	.+10     	; 0xffc <vfprintf+0x3a6>
     ff2:	95 33       	cpi	r25, 0x35	; 53
     ff4:	21 f4       	brne	.+8      	; 0xffe <vfprintf+0x3a8>
     ff6:	5c 85       	ldd	r21, Y+12	; 0x0c
     ff8:	54 fd       	sbrc	r21, 4
     ffa:	01 c0       	rjmp	.+2      	; 0xffe <vfprintf+0x3a8>
     ffc:	81 e3       	ldi	r24, 0x31	; 49
     ffe:	b7 01       	movw	r22, r14
    1000:	90 e0       	ldi	r25, 0x00	; 0
    1002:	4a c0       	rjmp	.+148    	; 0x1098 <vfprintf+0x442>
    1004:	8a 81       	ldd	r24, Y+2	; 0x02
    1006:	81 33       	cpi	r24, 0x31	; 49
    1008:	19 f0       	breq	.+6      	; 0x1010 <vfprintf+0x3ba>
    100a:	4c 85       	ldd	r20, Y+12	; 0x0c
    100c:	4f 7e       	andi	r20, 0xEF	; 239
    100e:	4c 87       	std	Y+12, r20	; 0x0c
    1010:	b7 01       	movw	r22, r14
    1012:	90 e0       	ldi	r25, 0x00	; 0
    1014:	0e 94 fc 0a 	call	0x15f8	; 0x15f8 <fputc>
    1018:	71 10       	cpse	r7, r1
    101a:	05 c0       	rjmp	.+10     	; 0x1026 <vfprintf+0x3d0>
    101c:	54 fe       	sbrs	r5, 4
    101e:	16 c0       	rjmp	.+44     	; 0x104c <vfprintf+0x3f6>
    1020:	85 e4       	ldi	r24, 0x45	; 69
    1022:	90 e0       	ldi	r25, 0x00	; 0
    1024:	15 c0       	rjmp	.+42     	; 0x1050 <vfprintf+0x3fa>
    1026:	b7 01       	movw	r22, r14
    1028:	8e e2       	ldi	r24, 0x2E	; 46
    102a:	90 e0       	ldi	r25, 0x00	; 0
    102c:	0e 94 fc 0a 	call	0x15f8	; 0x15f8 <fputc>
    1030:	42 e0       	ldi	r20, 0x02	; 2
    1032:	d4 2e       	mov	r13, r20
    1034:	f4 01       	movw	r30, r8
    1036:	ed 0d       	add	r30, r13
    1038:	f1 1d       	adc	r31, r1
    103a:	d3 94       	inc	r13
    103c:	b7 01       	movw	r22, r14
    103e:	80 81       	ld	r24, Z
    1040:	90 e0       	ldi	r25, 0x00	; 0
    1042:	0e 94 fc 0a 	call	0x15f8	; 0x15f8 <fputc>
    1046:	7a 94       	dec	r7
    1048:	a9 f7       	brne	.-22     	; 0x1034 <vfprintf+0x3de>
    104a:	e8 cf       	rjmp	.-48     	; 0x101c <vfprintf+0x3c6>
    104c:	85 e6       	ldi	r24, 0x65	; 101
    104e:	90 e0       	ldi	r25, 0x00	; 0
    1050:	b7 01       	movw	r22, r14
    1052:	0e 94 fc 0a 	call	0x15f8	; 0x15f8 <fputc>
    1056:	17 fd       	sbrc	r17, 7
    1058:	06 c0       	rjmp	.+12     	; 0x1066 <vfprintf+0x410>
    105a:	01 15       	cp	r16, r1
    105c:	11 05       	cpc	r17, r1
    105e:	41 f4       	brne	.+16     	; 0x1070 <vfprintf+0x41a>
    1060:	5c 85       	ldd	r21, Y+12	; 0x0c
    1062:	54 ff       	sbrs	r21, 4
    1064:	05 c0       	rjmp	.+10     	; 0x1070 <vfprintf+0x41a>
    1066:	11 95       	neg	r17
    1068:	01 95       	neg	r16
    106a:	11 09       	sbc	r17, r1
    106c:	8d e2       	ldi	r24, 0x2D	; 45
    106e:	01 c0       	rjmp	.+2      	; 0x1072 <vfprintf+0x41c>
    1070:	8b e2       	ldi	r24, 0x2B	; 43
    1072:	b7 01       	movw	r22, r14
    1074:	90 e0       	ldi	r25, 0x00	; 0
    1076:	0e 94 fc 0a 	call	0x15f8	; 0x15f8 <fputc>
    107a:	80 e3       	ldi	r24, 0x30	; 48
    107c:	03 c0       	rjmp	.+6      	; 0x1084 <vfprintf+0x42e>
    107e:	8f 5f       	subi	r24, 0xFF	; 255
    1080:	0a 50       	subi	r16, 0x0A	; 10
    1082:	11 09       	sbc	r17, r1
    1084:	0a 30       	cpi	r16, 0x0A	; 10
    1086:	11 05       	cpc	r17, r1
    1088:	d4 f7       	brge	.-12     	; 0x107e <vfprintf+0x428>
    108a:	b7 01       	movw	r22, r14
    108c:	90 e0       	ldi	r25, 0x00	; 0
    108e:	0e 94 fc 0a 	call	0x15f8	; 0x15f8 <fputc>
    1092:	b7 01       	movw	r22, r14
    1094:	c8 01       	movw	r24, r16
    1096:	c0 96       	adiw	r24, 0x30	; 48
    1098:	0e 94 fc 0a 	call	0x15f8	; 0x15f8 <fputc>
    109c:	50 c1       	rjmp	.+672    	; 0x133e <vfprintf+0x6e8>
    109e:	83 36       	cpi	r24, 0x63	; 99
    10a0:	31 f0       	breq	.+12     	; 0x10ae <vfprintf+0x458>
    10a2:	83 37       	cpi	r24, 0x73	; 115
    10a4:	81 f0       	breq	.+32     	; 0x10c6 <vfprintf+0x470>
    10a6:	83 35       	cpi	r24, 0x53	; 83
    10a8:	09 f0       	breq	.+2      	; 0x10ac <vfprintf+0x456>
    10aa:	5e c0       	rjmp	.+188    	; 0x1168 <vfprintf+0x512>
    10ac:	24 c0       	rjmp	.+72     	; 0x10f6 <vfprintf+0x4a0>
    10ae:	56 01       	movw	r10, r12
    10b0:	82 e0       	ldi	r24, 0x02	; 2
    10b2:	a8 0e       	add	r10, r24
    10b4:	b1 1c       	adc	r11, r1
    10b6:	f6 01       	movw	r30, r12
    10b8:	80 81       	ld	r24, Z
    10ba:	89 83       	std	Y+1, r24	; 0x01
    10bc:	cc 24       	eor	r12, r12
    10be:	c3 94       	inc	r12
    10c0:	d1 2c       	mov	r13, r1
    10c2:	84 01       	movw	r16, r8
    10c4:	14 c0       	rjmp	.+40     	; 0x10ee <vfprintf+0x498>
    10c6:	56 01       	movw	r10, r12
    10c8:	f2 e0       	ldi	r31, 0x02	; 2
    10ca:	af 0e       	add	r10, r31
    10cc:	b1 1c       	adc	r11, r1
    10ce:	f6 01       	movw	r30, r12
    10d0:	00 81       	ld	r16, Z
    10d2:	11 81       	ldd	r17, Z+1	; 0x01
    10d4:	26 ff       	sbrs	r18, 6
    10d6:	03 c0       	rjmp	.+6      	; 0x10de <vfprintf+0x488>
    10d8:	67 2d       	mov	r22, r7
    10da:	70 e0       	ldi	r23, 0x00	; 0
    10dc:	02 c0       	rjmp	.+4      	; 0x10e2 <vfprintf+0x48c>
    10de:	6f ef       	ldi	r22, 0xFF	; 255
    10e0:	7f ef       	ldi	r23, 0xFF	; 255
    10e2:	c8 01       	movw	r24, r16
    10e4:	2a 8b       	std	Y+18, r18	; 0x12
    10e6:	0e 94 f1 0a 	call	0x15e2	; 0x15e2 <strnlen>
    10ea:	6c 01       	movw	r12, r24
    10ec:	2a 89       	ldd	r18, Y+18	; 0x12
    10ee:	9f e7       	ldi	r25, 0x7F	; 127
    10f0:	59 2e       	mov	r5, r25
    10f2:	52 22       	and	r5, r18
    10f4:	17 c0       	rjmp	.+46     	; 0x1124 <vfprintf+0x4ce>
    10f6:	56 01       	movw	r10, r12
    10f8:	f2 e0       	ldi	r31, 0x02	; 2
    10fa:	af 0e       	add	r10, r31
    10fc:	b1 1c       	adc	r11, r1
    10fe:	f6 01       	movw	r30, r12
    1100:	00 81       	ld	r16, Z
    1102:	11 81       	ldd	r17, Z+1	; 0x01
    1104:	26 ff       	sbrs	r18, 6
    1106:	03 c0       	rjmp	.+6      	; 0x110e <vfprintf+0x4b8>
    1108:	67 2d       	mov	r22, r7
    110a:	70 e0       	ldi	r23, 0x00	; 0
    110c:	02 c0       	rjmp	.+4      	; 0x1112 <vfprintf+0x4bc>
    110e:	6f ef       	ldi	r22, 0xFF	; 255
    1110:	7f ef       	ldi	r23, 0xFF	; 255
    1112:	c8 01       	movw	r24, r16
    1114:	2a 8b       	std	Y+18, r18	; 0x12
    1116:	0e 94 bc 0a 	call	0x1578	; 0x1578 <strnlen_P>
    111a:	6c 01       	movw	r12, r24
    111c:	2a 89       	ldd	r18, Y+18	; 0x12
    111e:	80 e8       	ldi	r24, 0x80	; 128
    1120:	58 2e       	mov	r5, r24
    1122:	52 2a       	or	r5, r18
    1124:	53 fc       	sbrc	r5, 3
    1126:	1c c0       	rjmp	.+56     	; 0x1160 <vfprintf+0x50a>
    1128:	06 c0       	rjmp	.+12     	; 0x1136 <vfprintf+0x4e0>
    112a:	b7 01       	movw	r22, r14
    112c:	80 e2       	ldi	r24, 0x20	; 32
    112e:	90 e0       	ldi	r25, 0x00	; 0
    1130:	0e 94 fc 0a 	call	0x15f8	; 0x15f8 <fputc>
    1134:	6a 94       	dec	r6
    1136:	86 2d       	mov	r24, r6
    1138:	90 e0       	ldi	r25, 0x00	; 0
    113a:	c8 16       	cp	r12, r24
    113c:	d9 06       	cpc	r13, r25
    113e:	a8 f3       	brcs	.-22     	; 0x112a <vfprintf+0x4d4>
    1140:	0f c0       	rjmp	.+30     	; 0x1160 <vfprintf+0x50a>
    1142:	f8 01       	movw	r30, r16
    1144:	57 fc       	sbrc	r5, 7
    1146:	85 91       	lpm	r24, Z+
    1148:	57 fe       	sbrs	r5, 7
    114a:	81 91       	ld	r24, Z+
    114c:	8f 01       	movw	r16, r30
    114e:	b7 01       	movw	r22, r14
    1150:	90 e0       	ldi	r25, 0x00	; 0
    1152:	0e 94 fc 0a 	call	0x15f8	; 0x15f8 <fputc>
    1156:	61 10       	cpse	r6, r1
    1158:	6a 94       	dec	r6
    115a:	f1 e0       	ldi	r31, 0x01	; 1
    115c:	cf 1a       	sub	r12, r31
    115e:	d1 08       	sbc	r13, r1
    1160:	c1 14       	cp	r12, r1
    1162:	d1 04       	cpc	r13, r1
    1164:	71 f7       	brne	.-36     	; 0x1142 <vfprintf+0x4ec>
    1166:	eb c0       	rjmp	.+470    	; 0x133e <vfprintf+0x6e8>
    1168:	84 36       	cpi	r24, 0x64	; 100
    116a:	11 f0       	breq	.+4      	; 0x1170 <vfprintf+0x51a>
    116c:	89 36       	cpi	r24, 0x69	; 105
    116e:	51 f5       	brne	.+84     	; 0x11c4 <vfprintf+0x56e>
    1170:	56 01       	movw	r10, r12
    1172:	27 ff       	sbrs	r18, 7
    1174:	09 c0       	rjmp	.+18     	; 0x1188 <vfprintf+0x532>
    1176:	44 e0       	ldi	r20, 0x04	; 4
    1178:	a4 0e       	add	r10, r20
    117a:	b1 1c       	adc	r11, r1
    117c:	f6 01       	movw	r30, r12
    117e:	60 81       	ld	r22, Z
    1180:	71 81       	ldd	r23, Z+1	; 0x01
    1182:	82 81       	ldd	r24, Z+2	; 0x02
    1184:	93 81       	ldd	r25, Z+3	; 0x03
    1186:	0a c0       	rjmp	.+20     	; 0x119c <vfprintf+0x546>
    1188:	f2 e0       	ldi	r31, 0x02	; 2
    118a:	af 0e       	add	r10, r31
    118c:	b1 1c       	adc	r11, r1
    118e:	f6 01       	movw	r30, r12
    1190:	60 81       	ld	r22, Z
    1192:	71 81       	ldd	r23, Z+1	; 0x01
    1194:	88 27       	eor	r24, r24
    1196:	77 fd       	sbrc	r23, 7
    1198:	80 95       	com	r24
    119a:	98 2f       	mov	r25, r24
    119c:	12 2f       	mov	r17, r18
    119e:	1f 76       	andi	r17, 0x6F	; 111
    11a0:	97 ff       	sbrs	r25, 7
    11a2:	08 c0       	rjmp	.+16     	; 0x11b4 <vfprintf+0x55e>
    11a4:	90 95       	com	r25
    11a6:	80 95       	com	r24
    11a8:	70 95       	com	r23
    11aa:	61 95       	neg	r22
    11ac:	7f 4f       	sbci	r23, 0xFF	; 255
    11ae:	8f 4f       	sbci	r24, 0xFF	; 255
    11b0:	9f 4f       	sbci	r25, 0xFF	; 255
    11b2:	10 68       	ori	r17, 0x80	; 128
    11b4:	2a e0       	ldi	r18, 0x0A	; 10
    11b6:	30 e0       	ldi	r19, 0x00	; 0
    11b8:	a4 01       	movw	r20, r8
    11ba:	0e 94 4a 0b 	call	0x1694	; 0x1694 <__ultoa_invert>
    11be:	d8 2e       	mov	r13, r24
    11c0:	d8 18       	sub	r13, r8
    11c2:	40 c0       	rjmp	.+128    	; 0x1244 <vfprintf+0x5ee>
    11c4:	12 2f       	mov	r17, r18
    11c6:	85 37       	cpi	r24, 0x75	; 117
    11c8:	21 f4       	brne	.+8      	; 0x11d2 <vfprintf+0x57c>
    11ca:	1f 7e       	andi	r17, 0xEF	; 239
    11cc:	2a e0       	ldi	r18, 0x0A	; 10
    11ce:	30 e0       	ldi	r19, 0x00	; 0
    11d0:	1f c0       	rjmp	.+62     	; 0x1210 <vfprintf+0x5ba>
    11d2:	19 7f       	andi	r17, 0xF9	; 249
    11d4:	8f 36       	cpi	r24, 0x6F	; 111
    11d6:	a1 f0       	breq	.+40     	; 0x1200 <vfprintf+0x5aa>
    11d8:	20 f4       	brcc	.+8      	; 0x11e2 <vfprintf+0x58c>
    11da:	88 35       	cpi	r24, 0x58	; 88
    11dc:	09 f0       	breq	.+2      	; 0x11e0 <vfprintf+0x58a>
    11de:	b2 c0       	rjmp	.+356    	; 0x1344 <vfprintf+0x6ee>
    11e0:	0b c0       	rjmp	.+22     	; 0x11f8 <vfprintf+0x5a2>
    11e2:	80 37       	cpi	r24, 0x70	; 112
    11e4:	21 f0       	breq	.+8      	; 0x11ee <vfprintf+0x598>
    11e6:	88 37       	cpi	r24, 0x78	; 120
    11e8:	09 f0       	breq	.+2      	; 0x11ec <vfprintf+0x596>
    11ea:	ac c0       	rjmp	.+344    	; 0x1344 <vfprintf+0x6ee>
    11ec:	01 c0       	rjmp	.+2      	; 0x11f0 <vfprintf+0x59a>
    11ee:	10 61       	ori	r17, 0x10	; 16
    11f0:	14 ff       	sbrs	r17, 4
    11f2:	09 c0       	rjmp	.+18     	; 0x1206 <vfprintf+0x5b0>
    11f4:	14 60       	ori	r17, 0x04	; 4
    11f6:	07 c0       	rjmp	.+14     	; 0x1206 <vfprintf+0x5b0>
    11f8:	24 ff       	sbrs	r18, 4
    11fa:	08 c0       	rjmp	.+16     	; 0x120c <vfprintf+0x5b6>
    11fc:	16 60       	ori	r17, 0x06	; 6
    11fe:	06 c0       	rjmp	.+12     	; 0x120c <vfprintf+0x5b6>
    1200:	28 e0       	ldi	r18, 0x08	; 8
    1202:	30 e0       	ldi	r19, 0x00	; 0
    1204:	05 c0       	rjmp	.+10     	; 0x1210 <vfprintf+0x5ba>
    1206:	20 e1       	ldi	r18, 0x10	; 16
    1208:	30 e0       	ldi	r19, 0x00	; 0
    120a:	02 c0       	rjmp	.+4      	; 0x1210 <vfprintf+0x5ba>
    120c:	20 e1       	ldi	r18, 0x10	; 16
    120e:	32 e0       	ldi	r19, 0x02	; 2
    1210:	56 01       	movw	r10, r12
    1212:	17 ff       	sbrs	r17, 7
    1214:	09 c0       	rjmp	.+18     	; 0x1228 <vfprintf+0x5d2>
    1216:	f4 e0       	ldi	r31, 0x04	; 4
    1218:	af 0e       	add	r10, r31
    121a:	b1 1c       	adc	r11, r1
    121c:	f6 01       	movw	r30, r12
    121e:	60 81       	ld	r22, Z
    1220:	71 81       	ldd	r23, Z+1	; 0x01
    1222:	82 81       	ldd	r24, Z+2	; 0x02
    1224:	93 81       	ldd	r25, Z+3	; 0x03
    1226:	08 c0       	rjmp	.+16     	; 0x1238 <vfprintf+0x5e2>
    1228:	f2 e0       	ldi	r31, 0x02	; 2
    122a:	af 0e       	add	r10, r31
    122c:	b1 1c       	adc	r11, r1
    122e:	f6 01       	movw	r30, r12
    1230:	60 81       	ld	r22, Z
    1232:	71 81       	ldd	r23, Z+1	; 0x01
    1234:	80 e0       	ldi	r24, 0x00	; 0
    1236:	90 e0       	ldi	r25, 0x00	; 0
    1238:	a4 01       	movw	r20, r8
    123a:	0e 94 4a 0b 	call	0x1694	; 0x1694 <__ultoa_invert>
    123e:	d8 2e       	mov	r13, r24
    1240:	d8 18       	sub	r13, r8
    1242:	1f 77       	andi	r17, 0x7F	; 127
    1244:	16 ff       	sbrs	r17, 6
    1246:	0b c0       	rjmp	.+22     	; 0x125e <vfprintf+0x608>
    1248:	21 2f       	mov	r18, r17
    124a:	2e 7f       	andi	r18, 0xFE	; 254
    124c:	d7 14       	cp	r13, r7
    124e:	50 f4       	brcc	.+20     	; 0x1264 <vfprintf+0x60e>
    1250:	14 ff       	sbrs	r17, 4
    1252:	0a c0       	rjmp	.+20     	; 0x1268 <vfprintf+0x612>
    1254:	12 fd       	sbrc	r17, 2
    1256:	08 c0       	rjmp	.+16     	; 0x1268 <vfprintf+0x612>
    1258:	21 2f       	mov	r18, r17
    125a:	2e 7e       	andi	r18, 0xEE	; 238
    125c:	05 c0       	rjmp	.+10     	; 0x1268 <vfprintf+0x612>
    125e:	0d 2d       	mov	r16, r13
    1260:	21 2f       	mov	r18, r17
    1262:	03 c0       	rjmp	.+6      	; 0x126a <vfprintf+0x614>
    1264:	0d 2d       	mov	r16, r13
    1266:	01 c0       	rjmp	.+2      	; 0x126a <vfprintf+0x614>
    1268:	07 2d       	mov	r16, r7
    126a:	24 ff       	sbrs	r18, 4
    126c:	0c c0       	rjmp	.+24     	; 0x1286 <vfprintf+0x630>
    126e:	fe 01       	movw	r30, r28
    1270:	ed 0d       	add	r30, r13
    1272:	f1 1d       	adc	r31, r1
    1274:	80 81       	ld	r24, Z
    1276:	80 33       	cpi	r24, 0x30	; 48
    1278:	11 f4       	brne	.+4      	; 0x127e <vfprintf+0x628>
    127a:	29 7e       	andi	r18, 0xE9	; 233
    127c:	08 c0       	rjmp	.+16     	; 0x128e <vfprintf+0x638>
    127e:	22 ff       	sbrs	r18, 2
    1280:	05 c0       	rjmp	.+10     	; 0x128c <vfprintf+0x636>
    1282:	0e 5f       	subi	r16, 0xFE	; 254
    1284:	04 c0       	rjmp	.+8      	; 0x128e <vfprintf+0x638>
    1286:	82 2f       	mov	r24, r18
    1288:	86 78       	andi	r24, 0x86	; 134
    128a:	09 f0       	breq	.+2      	; 0x128e <vfprintf+0x638>
    128c:	0f 5f       	subi	r16, 0xFF	; 255
    128e:	23 fd       	sbrc	r18, 3
    1290:	14 c0       	rjmp	.+40     	; 0x12ba <vfprintf+0x664>
    1292:	20 ff       	sbrs	r18, 0
    1294:	0f c0       	rjmp	.+30     	; 0x12b4 <vfprintf+0x65e>
    1296:	7d 2c       	mov	r7, r13
    1298:	06 15       	cp	r16, r6
    129a:	60 f4       	brcc	.+24     	; 0x12b4 <vfprintf+0x65e>
    129c:	76 0c       	add	r7, r6
    129e:	70 1a       	sub	r7, r16
    12a0:	06 2d       	mov	r16, r6
    12a2:	08 c0       	rjmp	.+16     	; 0x12b4 <vfprintf+0x65e>
    12a4:	b7 01       	movw	r22, r14
    12a6:	80 e2       	ldi	r24, 0x20	; 32
    12a8:	90 e0       	ldi	r25, 0x00	; 0
    12aa:	2a 8b       	std	Y+18, r18	; 0x12
    12ac:	0e 94 fc 0a 	call	0x15f8	; 0x15f8 <fputc>
    12b0:	0f 5f       	subi	r16, 0xFF	; 255
    12b2:	2a 89       	ldd	r18, Y+18	; 0x12
    12b4:	06 15       	cp	r16, r6
    12b6:	b0 f3       	brcs	.-20     	; 0x12a4 <vfprintf+0x64e>
    12b8:	04 c0       	rjmp	.+8      	; 0x12c2 <vfprintf+0x66c>
    12ba:	06 15       	cp	r16, r6
    12bc:	10 f4       	brcc	.+4      	; 0x12c2 <vfprintf+0x66c>
    12be:	60 1a       	sub	r6, r16
    12c0:	01 c0       	rjmp	.+2      	; 0x12c4 <vfprintf+0x66e>
    12c2:	61 2c       	mov	r6, r1
    12c4:	24 ff       	sbrs	r18, 4
    12c6:	12 c0       	rjmp	.+36     	; 0x12ec <vfprintf+0x696>
    12c8:	b7 01       	movw	r22, r14
    12ca:	80 e3       	ldi	r24, 0x30	; 48
    12cc:	90 e0       	ldi	r25, 0x00	; 0
    12ce:	2a 8b       	std	Y+18, r18	; 0x12
    12d0:	0e 94 fc 0a 	call	0x15f8	; 0x15f8 <fputc>
    12d4:	2a 89       	ldd	r18, Y+18	; 0x12
    12d6:	22 ff       	sbrs	r18, 2
    12d8:	1e c0       	rjmp	.+60     	; 0x1316 <vfprintf+0x6c0>
    12da:	21 ff       	sbrs	r18, 1
    12dc:	03 c0       	rjmp	.+6      	; 0x12e4 <vfprintf+0x68e>
    12de:	88 e5       	ldi	r24, 0x58	; 88
    12e0:	90 e0       	ldi	r25, 0x00	; 0
    12e2:	02 c0       	rjmp	.+4      	; 0x12e8 <vfprintf+0x692>
    12e4:	88 e7       	ldi	r24, 0x78	; 120
    12e6:	90 e0       	ldi	r25, 0x00	; 0
    12e8:	b7 01       	movw	r22, r14
    12ea:	0c c0       	rjmp	.+24     	; 0x1304 <vfprintf+0x6ae>
    12ec:	82 2f       	mov	r24, r18
    12ee:	86 78       	andi	r24, 0x86	; 134
    12f0:	91 f0       	breq	.+36     	; 0x1316 <vfprintf+0x6c0>
    12f2:	21 fd       	sbrc	r18, 1
    12f4:	02 c0       	rjmp	.+4      	; 0x12fa <vfprintf+0x6a4>
    12f6:	80 e2       	ldi	r24, 0x20	; 32
    12f8:	01 c0       	rjmp	.+2      	; 0x12fc <vfprintf+0x6a6>
    12fa:	8b e2       	ldi	r24, 0x2B	; 43
    12fc:	27 fd       	sbrc	r18, 7
    12fe:	8d e2       	ldi	r24, 0x2D	; 45
    1300:	b7 01       	movw	r22, r14
    1302:	90 e0       	ldi	r25, 0x00	; 0
    1304:	0e 94 fc 0a 	call	0x15f8	; 0x15f8 <fputc>
    1308:	06 c0       	rjmp	.+12     	; 0x1316 <vfprintf+0x6c0>
    130a:	b7 01       	movw	r22, r14
    130c:	80 e3       	ldi	r24, 0x30	; 48
    130e:	90 e0       	ldi	r25, 0x00	; 0
    1310:	0e 94 fc 0a 	call	0x15f8	; 0x15f8 <fputc>
    1314:	7a 94       	dec	r7
    1316:	d7 14       	cp	r13, r7
    1318:	c0 f3       	brcs	.-16     	; 0x130a <vfprintf+0x6b4>
    131a:	da 94       	dec	r13
    131c:	f4 01       	movw	r30, r8
    131e:	ed 0d       	add	r30, r13
    1320:	f1 1d       	adc	r31, r1
    1322:	b7 01       	movw	r22, r14
    1324:	80 81       	ld	r24, Z
    1326:	90 e0       	ldi	r25, 0x00	; 0
    1328:	0e 94 fc 0a 	call	0x15f8	; 0x15f8 <fputc>
    132c:	d1 10       	cpse	r13, r1
    132e:	f5 cf       	rjmp	.-22     	; 0x131a <vfprintf+0x6c4>
    1330:	06 c0       	rjmp	.+12     	; 0x133e <vfprintf+0x6e8>
    1332:	b7 01       	movw	r22, r14
    1334:	80 e2       	ldi	r24, 0x20	; 32
    1336:	90 e0       	ldi	r25, 0x00	; 0
    1338:	0e 94 fc 0a 	call	0x15f8	; 0x15f8 <fputc>
    133c:	6a 94       	dec	r6
    133e:	61 10       	cpse	r6, r1
    1340:	f8 cf       	rjmp	.-16     	; 0x1332 <vfprintf+0x6dc>
    1342:	99 cc       	rjmp	.-1742   	; 0xc76 <vfprintf+0x20>
    1344:	f7 01       	movw	r30, r14
    1346:	26 81       	ldd	r18, Z+6	; 0x06
    1348:	37 81       	ldd	r19, Z+7	; 0x07
    134a:	02 c0       	rjmp	.+4      	; 0x1350 <vfprintf+0x6fa>
    134c:	2f ef       	ldi	r18, 0xFF	; 255
    134e:	3f ef       	ldi	r19, 0xFF	; 255
    1350:	c9 01       	movw	r24, r18
    1352:	62 96       	adiw	r28, 0x12	; 18
    1354:	e2 e1       	ldi	r30, 0x12	; 18
    1356:	0c 94 c9 09 	jmp	0x1392	; 0x1392 <__epilogue_restores__>

0000135a <__prologue_saves__>:
    135a:	2f 92       	push	r2
    135c:	3f 92       	push	r3
    135e:	4f 92       	push	r4
    1360:	5f 92       	push	r5
    1362:	6f 92       	push	r6
    1364:	7f 92       	push	r7
    1366:	8f 92       	push	r8
    1368:	9f 92       	push	r9
    136a:	af 92       	push	r10
    136c:	bf 92       	push	r11
    136e:	cf 92       	push	r12
    1370:	df 92       	push	r13
    1372:	ef 92       	push	r14
    1374:	ff 92       	push	r15
    1376:	0f 93       	push	r16
    1378:	1f 93       	push	r17
    137a:	cf 93       	push	r28
    137c:	df 93       	push	r29
    137e:	cd b7       	in	r28, 0x3d	; 61
    1380:	de b7       	in	r29, 0x3e	; 62
    1382:	ca 1b       	sub	r28, r26
    1384:	db 0b       	sbc	r29, r27
    1386:	0f b6       	in	r0, 0x3f	; 63
    1388:	f8 94       	cli
    138a:	de bf       	out	0x3e, r29	; 62
    138c:	0f be       	out	0x3f, r0	; 63
    138e:	cd bf       	out	0x3d, r28	; 61
    1390:	09 94       	ijmp

00001392 <__epilogue_restores__>:
    1392:	2a 88       	ldd	r2, Y+18	; 0x12
    1394:	39 88       	ldd	r3, Y+17	; 0x11
    1396:	48 88       	ldd	r4, Y+16	; 0x10
    1398:	5f 84       	ldd	r5, Y+15	; 0x0f
    139a:	6e 84       	ldd	r6, Y+14	; 0x0e
    139c:	7d 84       	ldd	r7, Y+13	; 0x0d
    139e:	8c 84       	ldd	r8, Y+12	; 0x0c
    13a0:	9b 84       	ldd	r9, Y+11	; 0x0b
    13a2:	aa 84       	ldd	r10, Y+10	; 0x0a
    13a4:	b9 84       	ldd	r11, Y+9	; 0x09
    13a6:	c8 84       	ldd	r12, Y+8	; 0x08
    13a8:	df 80       	ldd	r13, Y+7	; 0x07
    13aa:	ee 80       	ldd	r14, Y+6	; 0x06
    13ac:	fd 80       	ldd	r15, Y+5	; 0x05
    13ae:	0c 81       	ldd	r16, Y+4	; 0x04
    13b0:	1b 81       	ldd	r17, Y+3	; 0x03
    13b2:	aa 81       	ldd	r26, Y+2	; 0x02
    13b4:	b9 81       	ldd	r27, Y+1	; 0x01
    13b6:	ce 0f       	add	r28, r30
    13b8:	d1 1d       	adc	r29, r1
    13ba:	0f b6       	in	r0, 0x3f	; 63
    13bc:	f8 94       	cli
    13be:	de bf       	out	0x3e, r29	; 62
    13c0:	0f be       	out	0x3f, r0	; 63
    13c2:	cd bf       	out	0x3d, r28	; 61
    13c4:	ed 01       	movw	r28, r26
    13c6:	08 95       	ret

000013c8 <__ftoa_engine>:
    13c8:	28 30       	cpi	r18, 0x08	; 8
    13ca:	08 f0       	brcs	.+2      	; 0x13ce <__ftoa_engine+0x6>
    13cc:	27 e0       	ldi	r18, 0x07	; 7
    13ce:	33 27       	eor	r19, r19
    13d0:	da 01       	movw	r26, r20
    13d2:	99 0f       	add	r25, r25
    13d4:	31 1d       	adc	r19, r1
    13d6:	87 fd       	sbrc	r24, 7
    13d8:	91 60       	ori	r25, 0x01	; 1
    13da:	00 96       	adiw	r24, 0x00	; 0
    13dc:	61 05       	cpc	r22, r1
    13de:	71 05       	cpc	r23, r1
    13e0:	39 f4       	brne	.+14     	; 0x13f0 <__ftoa_engine+0x28>
    13e2:	32 60       	ori	r19, 0x02	; 2
    13e4:	2e 5f       	subi	r18, 0xFE	; 254
    13e6:	3d 93       	st	X+, r19
    13e8:	30 e3       	ldi	r19, 0x30	; 48
    13ea:	2a 95       	dec	r18
    13ec:	e1 f7       	brne	.-8      	; 0x13e6 <__ftoa_engine+0x1e>
    13ee:	08 95       	ret
    13f0:	9f 3f       	cpi	r25, 0xFF	; 255
    13f2:	30 f0       	brcs	.+12     	; 0x1400 <__ftoa_engine+0x38>
    13f4:	80 38       	cpi	r24, 0x80	; 128
    13f6:	71 05       	cpc	r23, r1
    13f8:	61 05       	cpc	r22, r1
    13fa:	09 f0       	breq	.+2      	; 0x13fe <__ftoa_engine+0x36>
    13fc:	3c 5f       	subi	r19, 0xFC	; 252
    13fe:	3c 5f       	subi	r19, 0xFC	; 252
    1400:	3d 93       	st	X+, r19
    1402:	91 30       	cpi	r25, 0x01	; 1
    1404:	08 f0       	brcs	.+2      	; 0x1408 <__ftoa_engine+0x40>
    1406:	80 68       	ori	r24, 0x80	; 128
    1408:	91 1d       	adc	r25, r1
    140a:	df 93       	push	r29
    140c:	cf 93       	push	r28
    140e:	1f 93       	push	r17
    1410:	0f 93       	push	r16
    1412:	ff 92       	push	r15
    1414:	ef 92       	push	r14
    1416:	19 2f       	mov	r17, r25
    1418:	98 7f       	andi	r25, 0xF8	; 248
    141a:	96 95       	lsr	r25
    141c:	e9 2f       	mov	r30, r25
    141e:	96 95       	lsr	r25
    1420:	96 95       	lsr	r25
    1422:	e9 0f       	add	r30, r25
    1424:	ff 27       	eor	r31, r31
    1426:	e6 53       	subi	r30, 0x36	; 54
    1428:	ff 4f       	sbci	r31, 0xFF	; 255
    142a:	99 27       	eor	r25, r25
    142c:	33 27       	eor	r19, r19
    142e:	ee 24       	eor	r14, r14
    1430:	ff 24       	eor	r15, r15
    1432:	a7 01       	movw	r20, r14
    1434:	e7 01       	movw	r28, r14
    1436:	05 90       	lpm	r0, Z+
    1438:	08 94       	sec
    143a:	07 94       	ror	r0
    143c:	28 f4       	brcc	.+10     	; 0x1448 <__ftoa_engine+0x80>
    143e:	36 0f       	add	r19, r22
    1440:	e7 1e       	adc	r14, r23
    1442:	f8 1e       	adc	r15, r24
    1444:	49 1f       	adc	r20, r25
    1446:	51 1d       	adc	r21, r1
    1448:	66 0f       	add	r22, r22
    144a:	77 1f       	adc	r23, r23
    144c:	88 1f       	adc	r24, r24
    144e:	99 1f       	adc	r25, r25
    1450:	06 94       	lsr	r0
    1452:	a1 f7       	brne	.-24     	; 0x143c <__ftoa_engine+0x74>
    1454:	05 90       	lpm	r0, Z+
    1456:	07 94       	ror	r0
    1458:	28 f4       	brcc	.+10     	; 0x1464 <__ftoa_engine+0x9c>
    145a:	e7 0e       	add	r14, r23
    145c:	f8 1e       	adc	r15, r24
    145e:	49 1f       	adc	r20, r25
    1460:	56 1f       	adc	r21, r22
    1462:	c1 1d       	adc	r28, r1
    1464:	77 0f       	add	r23, r23
    1466:	88 1f       	adc	r24, r24
    1468:	99 1f       	adc	r25, r25
    146a:	66 1f       	adc	r22, r22
    146c:	06 94       	lsr	r0
    146e:	a1 f7       	brne	.-24     	; 0x1458 <__ftoa_engine+0x90>
    1470:	05 90       	lpm	r0, Z+
    1472:	07 94       	ror	r0
    1474:	28 f4       	brcc	.+10     	; 0x1480 <__ftoa_engine+0xb8>
    1476:	f8 0e       	add	r15, r24
    1478:	49 1f       	adc	r20, r25
    147a:	56 1f       	adc	r21, r22
    147c:	c7 1f       	adc	r28, r23
    147e:	d1 1d       	adc	r29, r1
    1480:	88 0f       	add	r24, r24
    1482:	99 1f       	adc	r25, r25
    1484:	66 1f       	adc	r22, r22
    1486:	77 1f       	adc	r23, r23
    1488:	06 94       	lsr	r0
    148a:	a1 f7       	brne	.-24     	; 0x1474 <__ftoa_engine+0xac>
    148c:	05 90       	lpm	r0, Z+
    148e:	07 94       	ror	r0
    1490:	20 f4       	brcc	.+8      	; 0x149a <__ftoa_engine+0xd2>
    1492:	49 0f       	add	r20, r25
    1494:	56 1f       	adc	r21, r22
    1496:	c7 1f       	adc	r28, r23
    1498:	d8 1f       	adc	r29, r24
    149a:	99 0f       	add	r25, r25
    149c:	66 1f       	adc	r22, r22
    149e:	77 1f       	adc	r23, r23
    14a0:	88 1f       	adc	r24, r24
    14a2:	06 94       	lsr	r0
    14a4:	a9 f7       	brne	.-22     	; 0x1490 <__ftoa_engine+0xc8>
    14a6:	84 91       	lpm	r24, Z
    14a8:	10 95       	com	r17
    14aa:	17 70       	andi	r17, 0x07	; 7
    14ac:	41 f0       	breq	.+16     	; 0x14be <__ftoa_engine+0xf6>
    14ae:	d6 95       	lsr	r29
    14b0:	c7 95       	ror	r28
    14b2:	57 95       	ror	r21
    14b4:	47 95       	ror	r20
    14b6:	f7 94       	ror	r15
    14b8:	e7 94       	ror	r14
    14ba:	1a 95       	dec	r17
    14bc:	c1 f7       	brne	.-16     	; 0x14ae <__ftoa_engine+0xe6>
    14be:	e0 e7       	ldi	r30, 0x70	; 112
    14c0:	f0 e0       	ldi	r31, 0x00	; 0
    14c2:	68 94       	set
    14c4:	15 90       	lpm	r1, Z+
    14c6:	15 91       	lpm	r17, Z+
    14c8:	35 91       	lpm	r19, Z+
    14ca:	65 91       	lpm	r22, Z+
    14cc:	95 91       	lpm	r25, Z+
    14ce:	05 90       	lpm	r0, Z+
    14d0:	7f e2       	ldi	r23, 0x2F	; 47
    14d2:	73 95       	inc	r23
    14d4:	e1 18       	sub	r14, r1
    14d6:	f1 0a       	sbc	r15, r17
    14d8:	43 0b       	sbc	r20, r19
    14da:	56 0b       	sbc	r21, r22
    14dc:	c9 0b       	sbc	r28, r25
    14de:	d0 09       	sbc	r29, r0
    14e0:	c0 f7       	brcc	.-16     	; 0x14d2 <__ftoa_engine+0x10a>
    14e2:	e1 0c       	add	r14, r1
    14e4:	f1 1e       	adc	r15, r17
    14e6:	43 1f       	adc	r20, r19
    14e8:	56 1f       	adc	r21, r22
    14ea:	c9 1f       	adc	r28, r25
    14ec:	d0 1d       	adc	r29, r0
    14ee:	7e f4       	brtc	.+30     	; 0x150e <__ftoa_engine+0x146>
    14f0:	70 33       	cpi	r23, 0x30	; 48
    14f2:	11 f4       	brne	.+4      	; 0x14f8 <__ftoa_engine+0x130>
    14f4:	8a 95       	dec	r24
    14f6:	e6 cf       	rjmp	.-52     	; 0x14c4 <__ftoa_engine+0xfc>
    14f8:	e8 94       	clt
    14fa:	01 50       	subi	r16, 0x01	; 1
    14fc:	30 f0       	brcs	.+12     	; 0x150a <__ftoa_engine+0x142>
    14fe:	08 0f       	add	r16, r24
    1500:	0a f4       	brpl	.+2      	; 0x1504 <__ftoa_engine+0x13c>
    1502:	00 27       	eor	r16, r16
    1504:	02 17       	cp	r16, r18
    1506:	08 f4       	brcc	.+2      	; 0x150a <__ftoa_engine+0x142>
    1508:	20 2f       	mov	r18, r16
    150a:	23 95       	inc	r18
    150c:	02 2f       	mov	r16, r18
    150e:	7a 33       	cpi	r23, 0x3A	; 58
    1510:	28 f0       	brcs	.+10     	; 0x151c <__ftoa_engine+0x154>
    1512:	79 e3       	ldi	r23, 0x39	; 57
    1514:	7d 93       	st	X+, r23
    1516:	2a 95       	dec	r18
    1518:	e9 f7       	brne	.-6      	; 0x1514 <__ftoa_engine+0x14c>
    151a:	10 c0       	rjmp	.+32     	; 0x153c <__ftoa_engine+0x174>
    151c:	7d 93       	st	X+, r23
    151e:	2a 95       	dec	r18
    1520:	89 f6       	brne	.-94     	; 0x14c4 <__ftoa_engine+0xfc>
    1522:	06 94       	lsr	r0
    1524:	97 95       	ror	r25
    1526:	67 95       	ror	r22
    1528:	37 95       	ror	r19
    152a:	17 95       	ror	r17
    152c:	17 94       	ror	r1
    152e:	e1 18       	sub	r14, r1
    1530:	f1 0a       	sbc	r15, r17
    1532:	43 0b       	sbc	r20, r19
    1534:	56 0b       	sbc	r21, r22
    1536:	c9 0b       	sbc	r28, r25
    1538:	d0 09       	sbc	r29, r0
    153a:	98 f0       	brcs	.+38     	; 0x1562 <__ftoa_engine+0x19a>
    153c:	23 95       	inc	r18
    153e:	7e 91       	ld	r23, -X
    1540:	73 95       	inc	r23
    1542:	7a 33       	cpi	r23, 0x3A	; 58
    1544:	08 f0       	brcs	.+2      	; 0x1548 <__ftoa_engine+0x180>
    1546:	70 e3       	ldi	r23, 0x30	; 48
    1548:	7c 93       	st	X, r23
    154a:	20 13       	cpse	r18, r16
    154c:	b8 f7       	brcc	.-18     	; 0x153c <__ftoa_engine+0x174>
    154e:	7e 91       	ld	r23, -X
    1550:	70 61       	ori	r23, 0x10	; 16
    1552:	7d 93       	st	X+, r23
    1554:	30 f0       	brcs	.+12     	; 0x1562 <__ftoa_engine+0x19a>
    1556:	83 95       	inc	r24
    1558:	71 e3       	ldi	r23, 0x31	; 49
    155a:	7d 93       	st	X+, r23
    155c:	70 e3       	ldi	r23, 0x30	; 48
    155e:	2a 95       	dec	r18
    1560:	e1 f7       	brne	.-8      	; 0x155a <__ftoa_engine+0x192>
    1562:	11 24       	eor	r1, r1
    1564:	ef 90       	pop	r14
    1566:	ff 90       	pop	r15
    1568:	0f 91       	pop	r16
    156a:	1f 91       	pop	r17
    156c:	cf 91       	pop	r28
    156e:	df 91       	pop	r29
    1570:	99 27       	eor	r25, r25
    1572:	87 fd       	sbrc	r24, 7
    1574:	90 95       	com	r25
    1576:	08 95       	ret

00001578 <strnlen_P>:
    1578:	fc 01       	movw	r30, r24
    157a:	05 90       	lpm	r0, Z+
    157c:	61 50       	subi	r22, 0x01	; 1
    157e:	70 40       	sbci	r23, 0x00	; 0
    1580:	01 10       	cpse	r0, r1
    1582:	d8 f7       	brcc	.-10     	; 0x157a <strnlen_P+0x2>
    1584:	80 95       	com	r24
    1586:	90 95       	com	r25
    1588:	8e 0f       	add	r24, r30
    158a:	9f 1f       	adc	r25, r31
    158c:	08 95       	ret

0000158e <memset>:
    158e:	dc 01       	movw	r26, r24
    1590:	01 c0       	rjmp	.+2      	; 0x1594 <memset+0x6>
    1592:	6d 93       	st	X+, r22
    1594:	41 50       	subi	r20, 0x01	; 1
    1596:	50 40       	sbci	r21, 0x00	; 0
    1598:	e0 f7       	brcc	.-8      	; 0x1592 <memset+0x4>
    159a:	08 95       	ret

0000159c <strcat>:
    159c:	fb 01       	movw	r30, r22
    159e:	dc 01       	movw	r26, r24
    15a0:	0d 90       	ld	r0, X+
    15a2:	00 20       	and	r0, r0
    15a4:	e9 f7       	brne	.-6      	; 0x15a0 <strcat+0x4>
    15a6:	11 97       	sbiw	r26, 0x01	; 1
    15a8:	01 90       	ld	r0, Z+
    15aa:	0d 92       	st	X+, r0
    15ac:	00 20       	and	r0, r0
    15ae:	e1 f7       	brne	.-8      	; 0x15a8 <strcat+0xc>
    15b0:	08 95       	ret

000015b2 <strcmp>:
    15b2:	fb 01       	movw	r30, r22
    15b4:	dc 01       	movw	r26, r24
    15b6:	8d 91       	ld	r24, X+
    15b8:	01 90       	ld	r0, Z+
    15ba:	80 19       	sub	r24, r0
    15bc:	01 10       	cpse	r0, r1
    15be:	d9 f3       	breq	.-10     	; 0x15b6 <strcmp+0x4>
    15c0:	99 0b       	sbc	r25, r25
    15c2:	08 95       	ret

000015c4 <strncpy>:
    15c4:	fb 01       	movw	r30, r22
    15c6:	dc 01       	movw	r26, r24
    15c8:	41 50       	subi	r20, 0x01	; 1
    15ca:	50 40       	sbci	r21, 0x00	; 0
    15cc:	48 f0       	brcs	.+18     	; 0x15e0 <strncpy+0x1c>
    15ce:	01 90       	ld	r0, Z+
    15d0:	0d 92       	st	X+, r0
    15d2:	00 20       	and	r0, r0
    15d4:	c9 f7       	brne	.-14     	; 0x15c8 <strncpy+0x4>
    15d6:	01 c0       	rjmp	.+2      	; 0x15da <strncpy+0x16>
    15d8:	1d 92       	st	X+, r1
    15da:	41 50       	subi	r20, 0x01	; 1
    15dc:	50 40       	sbci	r21, 0x00	; 0
    15de:	e0 f7       	brcc	.-8      	; 0x15d8 <strncpy+0x14>
    15e0:	08 95       	ret

000015e2 <strnlen>:
    15e2:	fc 01       	movw	r30, r24
    15e4:	61 50       	subi	r22, 0x01	; 1
    15e6:	70 40       	sbci	r23, 0x00	; 0
    15e8:	01 90       	ld	r0, Z+
    15ea:	01 10       	cpse	r0, r1
    15ec:	d8 f7       	brcc	.-10     	; 0x15e4 <strnlen+0x2>
    15ee:	80 95       	com	r24
    15f0:	90 95       	com	r25
    15f2:	8e 0f       	add	r24, r30
    15f4:	9f 1f       	adc	r25, r31
    15f6:	08 95       	ret

000015f8 <fputc>:
    15f8:	0f 93       	push	r16
    15fa:	1f 93       	push	r17
    15fc:	cf 93       	push	r28
    15fe:	df 93       	push	r29
    1600:	8c 01       	movw	r16, r24
    1602:	eb 01       	movw	r28, r22
    1604:	8b 81       	ldd	r24, Y+3	; 0x03
    1606:	81 fd       	sbrc	r24, 1
    1608:	03 c0       	rjmp	.+6      	; 0x1610 <fputc+0x18>
    160a:	0f ef       	ldi	r16, 0xFF	; 255
    160c:	1f ef       	ldi	r17, 0xFF	; 255
    160e:	1a c0       	rjmp	.+52     	; 0x1644 <fputc+0x4c>
    1610:	82 ff       	sbrs	r24, 2
    1612:	0d c0       	rjmp	.+26     	; 0x162e <fputc+0x36>
    1614:	2e 81       	ldd	r18, Y+6	; 0x06
    1616:	3f 81       	ldd	r19, Y+7	; 0x07
    1618:	8c 81       	ldd	r24, Y+4	; 0x04
    161a:	9d 81       	ldd	r25, Y+5	; 0x05
    161c:	28 17       	cp	r18, r24
    161e:	39 07       	cpc	r19, r25
    1620:	64 f4       	brge	.+24     	; 0x163a <fputc+0x42>
    1622:	e8 81       	ld	r30, Y
    1624:	f9 81       	ldd	r31, Y+1	; 0x01
    1626:	01 93       	st	Z+, r16
    1628:	f9 83       	std	Y+1, r31	; 0x01
    162a:	e8 83       	st	Y, r30
    162c:	06 c0       	rjmp	.+12     	; 0x163a <fputc+0x42>
    162e:	e8 85       	ldd	r30, Y+8	; 0x08
    1630:	f9 85       	ldd	r31, Y+9	; 0x09
    1632:	80 2f       	mov	r24, r16
    1634:	09 95       	icall
    1636:	89 2b       	or	r24, r25
    1638:	41 f7       	brne	.-48     	; 0x160a <fputc+0x12>
    163a:	8e 81       	ldd	r24, Y+6	; 0x06
    163c:	9f 81       	ldd	r25, Y+7	; 0x07
    163e:	01 96       	adiw	r24, 0x01	; 1
    1640:	9f 83       	std	Y+7, r25	; 0x07
    1642:	8e 83       	std	Y+6, r24	; 0x06
    1644:	c8 01       	movw	r24, r16
    1646:	df 91       	pop	r29
    1648:	cf 91       	pop	r28
    164a:	1f 91       	pop	r17
    164c:	0f 91       	pop	r16
    164e:	08 95       	ret

00001650 <sprintf>:
    1650:	ae e0       	ldi	r26, 0x0E	; 14
    1652:	b0 e0       	ldi	r27, 0x00	; 0
    1654:	ee e2       	ldi	r30, 0x2E	; 46
    1656:	fb e0       	ldi	r31, 0x0B	; 11
    1658:	0c 94 bb 09 	jmp	0x1376	; 0x1376 <__prologue_saves__+0x1c>
    165c:	0d 89       	ldd	r16, Y+21	; 0x15
    165e:	1e 89       	ldd	r17, Y+22	; 0x16
    1660:	86 e0       	ldi	r24, 0x06	; 6
    1662:	8c 83       	std	Y+4, r24	; 0x04
    1664:	1a 83       	std	Y+2, r17	; 0x02
    1666:	09 83       	std	Y+1, r16	; 0x01
    1668:	8f ef       	ldi	r24, 0xFF	; 255
    166a:	9f e7       	ldi	r25, 0x7F	; 127
    166c:	9e 83       	std	Y+6, r25	; 0x06
    166e:	8d 83       	std	Y+5, r24	; 0x05
    1670:	ce 01       	movw	r24, r28
    1672:	49 96       	adiw	r24, 0x19	; 25
    1674:	ac 01       	movw	r20, r24
    1676:	6f 89       	ldd	r22, Y+23	; 0x17
    1678:	78 8d       	ldd	r23, Y+24	; 0x18
    167a:	ce 01       	movw	r24, r28
    167c:	01 96       	adiw	r24, 0x01	; 1
    167e:	0e 94 2b 06 	call	0xc56	; 0xc56 <vfprintf>
    1682:	ef 81       	ldd	r30, Y+7	; 0x07
    1684:	f8 85       	ldd	r31, Y+8	; 0x08
    1686:	e0 0f       	add	r30, r16
    1688:	f1 1f       	adc	r31, r17
    168a:	10 82       	st	Z, r1
    168c:	2e 96       	adiw	r28, 0x0e	; 14
    168e:	e4 e0       	ldi	r30, 0x04	; 4
    1690:	0c 94 d7 09 	jmp	0x13ae	; 0x13ae <__epilogue_restores__+0x1c>

00001694 <__ultoa_invert>:
    1694:	fa 01       	movw	r30, r20
    1696:	aa 27       	eor	r26, r26
    1698:	28 30       	cpi	r18, 0x08	; 8
    169a:	51 f1       	breq	.+84     	; 0x16f0 <__ultoa_invert+0x5c>
    169c:	20 31       	cpi	r18, 0x10	; 16
    169e:	81 f1       	breq	.+96     	; 0x1700 <__ultoa_invert+0x6c>
    16a0:	e8 94       	clt
    16a2:	6f 93       	push	r22
    16a4:	6e 7f       	andi	r22, 0xFE	; 254
    16a6:	6e 5f       	subi	r22, 0xFE	; 254
    16a8:	7f 4f       	sbci	r23, 0xFF	; 255
    16aa:	8f 4f       	sbci	r24, 0xFF	; 255
    16ac:	9f 4f       	sbci	r25, 0xFF	; 255
    16ae:	af 4f       	sbci	r26, 0xFF	; 255
    16b0:	b1 e0       	ldi	r27, 0x01	; 1
    16b2:	3e d0       	rcall	.+124    	; 0x1730 <__ultoa_invert+0x9c>
    16b4:	b4 e0       	ldi	r27, 0x04	; 4
    16b6:	3c d0       	rcall	.+120    	; 0x1730 <__ultoa_invert+0x9c>
    16b8:	67 0f       	add	r22, r23
    16ba:	78 1f       	adc	r23, r24
    16bc:	89 1f       	adc	r24, r25
    16be:	9a 1f       	adc	r25, r26
    16c0:	a1 1d       	adc	r26, r1
    16c2:	68 0f       	add	r22, r24
    16c4:	79 1f       	adc	r23, r25
    16c6:	8a 1f       	adc	r24, r26
    16c8:	91 1d       	adc	r25, r1
    16ca:	a1 1d       	adc	r26, r1
    16cc:	6a 0f       	add	r22, r26
    16ce:	71 1d       	adc	r23, r1
    16d0:	81 1d       	adc	r24, r1
    16d2:	91 1d       	adc	r25, r1
    16d4:	a1 1d       	adc	r26, r1
    16d6:	20 d0       	rcall	.+64     	; 0x1718 <__ultoa_invert+0x84>
    16d8:	09 f4       	brne	.+2      	; 0x16dc <__ultoa_invert+0x48>
    16da:	68 94       	set
    16dc:	3f 91       	pop	r19
    16de:	2a e0       	ldi	r18, 0x0A	; 10
    16e0:	26 9f       	mul	r18, r22
    16e2:	11 24       	eor	r1, r1
    16e4:	30 19       	sub	r19, r0
    16e6:	30 5d       	subi	r19, 0xD0	; 208
    16e8:	31 93       	st	Z+, r19
    16ea:	de f6       	brtc	.-74     	; 0x16a2 <__ultoa_invert+0xe>
    16ec:	cf 01       	movw	r24, r30
    16ee:	08 95       	ret
    16f0:	46 2f       	mov	r20, r22
    16f2:	47 70       	andi	r20, 0x07	; 7
    16f4:	40 5d       	subi	r20, 0xD0	; 208
    16f6:	41 93       	st	Z+, r20
    16f8:	b3 e0       	ldi	r27, 0x03	; 3
    16fa:	0f d0       	rcall	.+30     	; 0x171a <__ultoa_invert+0x86>
    16fc:	c9 f7       	brne	.-14     	; 0x16f0 <__ultoa_invert+0x5c>
    16fe:	f6 cf       	rjmp	.-20     	; 0x16ec <__ultoa_invert+0x58>
    1700:	46 2f       	mov	r20, r22
    1702:	4f 70       	andi	r20, 0x0F	; 15
    1704:	40 5d       	subi	r20, 0xD0	; 208
    1706:	4a 33       	cpi	r20, 0x3A	; 58
    1708:	18 f0       	brcs	.+6      	; 0x1710 <__ultoa_invert+0x7c>
    170a:	49 5d       	subi	r20, 0xD9	; 217
    170c:	31 fd       	sbrc	r19, 1
    170e:	40 52       	subi	r20, 0x20	; 32
    1710:	41 93       	st	Z+, r20
    1712:	02 d0       	rcall	.+4      	; 0x1718 <__ultoa_invert+0x84>
    1714:	a9 f7       	brne	.-22     	; 0x1700 <__ultoa_invert+0x6c>
    1716:	ea cf       	rjmp	.-44     	; 0x16ec <__ultoa_invert+0x58>
    1718:	b4 e0       	ldi	r27, 0x04	; 4
    171a:	a6 95       	lsr	r26
    171c:	97 95       	ror	r25
    171e:	87 95       	ror	r24
    1720:	77 95       	ror	r23
    1722:	67 95       	ror	r22
    1724:	ba 95       	dec	r27
    1726:	c9 f7       	brne	.-14     	; 0x171a <__ultoa_invert+0x86>
    1728:	00 97       	sbiw	r24, 0x00	; 0
    172a:	61 05       	cpc	r22, r1
    172c:	71 05       	cpc	r23, r1
    172e:	08 95       	ret
    1730:	9b 01       	movw	r18, r22
    1732:	ac 01       	movw	r20, r24
    1734:	0a 2e       	mov	r0, r26
    1736:	06 94       	lsr	r0
    1738:	57 95       	ror	r21
    173a:	47 95       	ror	r20
    173c:	37 95       	ror	r19
    173e:	27 95       	ror	r18
    1740:	ba 95       	dec	r27
    1742:	c9 f7       	brne	.-14     	; 0x1736 <__ultoa_invert+0xa2>
    1744:	62 0f       	add	r22, r18
    1746:	73 1f       	adc	r23, r19
    1748:	84 1f       	adc	r24, r20
    174a:	95 1f       	adc	r25, r21
    174c:	a0 1d       	adc	r26, r0
    174e:	08 95       	ret

00001750 <_exit>:
    1750:	f8 94       	cli

00001752 <__stop_program>:
    1752:	ff cf       	rjmp	.-2      	; 0x1752 <__stop_program>
