
StateMachineControl.elf:     file format elf32-avr

Sections:
Idx Name          Size      VMA       LMA       File off  Algn
  0 .data         0000044c  00800100  000026f0  00002784  2**0
                  CONTENTS, ALLOC, LOAD, DATA
  1 .text         000026f0  00000000  00000000  00000094  2**1
                  CONTENTS, ALLOC, LOAD, READONLY, CODE
  2 .bss          00000101  0080054c  0080054c  00002bd0  2**0
                  ALLOC
  3 .stab         00003a38  00000000  00000000  00002bd0  2**2
                  CONTENTS, READONLY, DEBUGGING
  4 .stabstr      00000d5b  00000000  00000000  00006608  2**0
                  CONTENTS, READONLY, DEBUGGING
  5 .comment      0000002f  00000000  00000000  00007363  2**0
                  CONTENTS, READONLY
  6 .debug_aranges 00000220  00000000  00000000  00007392  2**0
                  CONTENTS, READONLY, DEBUGGING
  7 .debug_info   0000303f  00000000  00000000  000075b2  2**0
                  CONTENTS, READONLY, DEBUGGING
  8 .debug_abbrev 00000d07  00000000  00000000  0000a5f1  2**0
                  CONTENTS, READONLY, DEBUGGING
  9 .debug_line   000015da  00000000  00000000  0000b2f8  2**0
                  CONTENTS, READONLY, DEBUGGING
 10 .debug_frame  00000594  00000000  00000000  0000c8d4  2**2
                  CONTENTS, READONLY, DEBUGGING
 11 .debug_str    000008b6  00000000  00000000  0000ce68  2**0
                  CONTENTS, READONLY, DEBUGGING
 12 .debug_loc    00001c66  00000000  00000000  0000d71e  2**0
                  CONTENTS, READONLY, DEBUGGING
 13 .debug_ranges 00000198  00000000  00000000  0000f384  2**0
                  CONTENTS, READONLY, DEBUGGING

Disassembly of section .text:

00000000 <__vectors>:
       0:	0c 94 b5 00 	jmp	0x16a	; 0x16a <__ctors_end>
       4:	0c 94 4b 09 	jmp	0x1296	; 0x1296 <__vector_1>
       8:	0c 94 5e 09 	jmp	0x12bc	; 0x12bc <__vector_2>
       c:	0c 94 d2 00 	jmp	0x1a4	; 0x1a4 <__bad_interrupt>
      10:	0c 94 d2 00 	jmp	0x1a4	; 0x1a4 <__bad_interrupt>
      14:	0c 94 d2 00 	jmp	0x1a4	; 0x1a4 <__bad_interrupt>
      18:	0c 94 d2 00 	jmp	0x1a4	; 0x1a4 <__bad_interrupt>
      1c:	0c 94 d2 00 	jmp	0x1a4	; 0x1a4 <__bad_interrupt>
      20:	0c 94 d2 00 	jmp	0x1a4	; 0x1a4 <__bad_interrupt>
      24:	0c 94 d2 00 	jmp	0x1a4	; 0x1a4 <__bad_interrupt>
      28:	0c 94 d2 00 	jmp	0x1a4	; 0x1a4 <__bad_interrupt>
      2c:	0c 94 99 08 	jmp	0x1132	; 0x1132 <__vector_11>
      30:	0c 94 d2 00 	jmp	0x1a4	; 0x1a4 <__bad_interrupt>
      34:	0c 94 d2 00 	jmp	0x1a4	; 0x1a4 <__bad_interrupt>
      38:	0c 94 d2 00 	jmp	0x1a4	; 0x1a4 <__bad_interrupt>
      3c:	0c 94 d2 00 	jmp	0x1a4	; 0x1a4 <__bad_interrupt>
      40:	0c 94 d2 00 	jmp	0x1a4	; 0x1a4 <__bad_interrupt>
      44:	0c 94 d2 00 	jmp	0x1a4	; 0x1a4 <__bad_interrupt>
      48:	0c 94 6c 08 	jmp	0x10d8	; 0x10d8 <__vector_18>
      4c:	0c 94 d2 00 	jmp	0x1a4	; 0x1a4 <__bad_interrupt>
      50:	0c 94 d2 00 	jmp	0x1a4	; 0x1a4 <__bad_interrupt>
      54:	0c 94 d2 00 	jmp	0x1a4	; 0x1a4 <__bad_interrupt>
      58:	0c 94 d2 00 	jmp	0x1a4	; 0x1a4 <__bad_interrupt>
      5c:	0c 94 d2 00 	jmp	0x1a4	; 0x1a4 <__bad_interrupt>
      60:	0c 94 d2 00 	jmp	0x1a4	; 0x1a4 <__bad_interrupt>
      64:	0c 94 d2 00 	jmp	0x1a4	; 0x1a4 <__bad_interrupt>

00000068 <__c.2006>:
      68:	6e 61 6e 00                                         nan.

0000006c <__c.2004>:
      6c:	69 6e 66 00 00 40 7a 10 f3 5a 00 a0 72 4e 18 09     inf..@z..Z..rN..
      7c:	00 10 a5 d4 e8 00 00 e8 76 48 17 00 00 e4 0b 54     ........vH.....T
      8c:	02 00 00 ca 9a 3b 00 00 00 e1 f5 05 00 00 80 96     .....;..........
      9c:	98 00 00 00 40 42 0f 00 00 00 a0 86 01 00 00 00     ....@B..........
      ac:	10 27 00 00 00 00 e8 03 00 00 00 00 64 00 00 00     .'..........d...
      bc:	00 00 0a 00 00 00 00 00 01 00 00 00 00 00 2c 76     ..............,v
      cc:	d8 88 dc 67 4f 08 23 df c1 df ae 59 e1 b1 b7 96     ...gO.#....Y....
      dc:	e5 e3 e4 53 c6 3a e6 51 99 76 96 e8 e6 c2 84 26     ...S.:.Q.v.....&
      ec:	eb 89 8c 9b 62 ed 40 7c 6f fc ef bc 9c 9f 40 f2     ....b.@|o.....@.
      fc:	ba a5 6f a5 f4 90 05 5a 2a f7 5c 93 6b 6c f9 67     ..o....Z*.\.kl.g
     10c:	6d c1 1b fc e0 e4 0d 47 fe f5 20 e6 b5 00 d0 ed     m......G.. .....
     11c:	90 2e 03 00 94 35 77 05 00 80 84 1e 08 00 00 20     .....5w........ 
     12c:	4e 0a 00 00 00 c8 0c 33 33 33 33 0f 98 6e 12 83     N......3333..n..
     13c:	11 41 ef 8d 21 14 89 3b e6 55 16 cf fe e6 db 18     .A..!..;.U......
     14c:	d1 84 4b 38 1b f7 7c 1d 90 1d a4 bb e4 24 20 32     ..K8..|......$ 2
     15c:	84 72 5e 22 81 00 c9 f1 24 ec a1 e5 3d 27           .r^"....$...='

0000016a <__ctors_end>:
     16a:	11 24       	eor	r1, r1
     16c:	1f be       	out	0x3f, r1	; 63
     16e:	cf ef       	ldi	r28, 0xFF	; 255
     170:	d8 e0       	ldi	r29, 0x08	; 8
     172:	de bf       	out	0x3e, r29	; 62
     174:	cd bf       	out	0x3d, r28	; 61

00000176 <__do_copy_data>:
     176:	15 e0       	ldi	r17, 0x05	; 5
     178:	a0 e0       	ldi	r26, 0x00	; 0
     17a:	b1 e0       	ldi	r27, 0x01	; 1
     17c:	e0 ef       	ldi	r30, 0xF0	; 240
     17e:	f6 e2       	ldi	r31, 0x26	; 38
     180:	02 c0       	rjmp	.+4      	; 0x186 <__do_copy_data+0x10>
     182:	05 90       	lpm	r0, Z+
     184:	0d 92       	st	X+, r0
     186:	ac 34       	cpi	r26, 0x4C	; 76
     188:	b1 07       	cpc	r27, r17
     18a:	d9 f7       	brne	.-10     	; 0x182 <__do_copy_data+0xc>

0000018c <__do_clear_bss>:
     18c:	26 e0       	ldi	r18, 0x06	; 6
     18e:	ac e4       	ldi	r26, 0x4C	; 76
     190:	b5 e0       	ldi	r27, 0x05	; 5
     192:	01 c0       	rjmp	.+2      	; 0x196 <.do_clear_bss_start>

00000194 <.do_clear_bss_loop>:
     194:	1d 92       	st	X+, r1

00000196 <.do_clear_bss_start>:
     196:	ad 34       	cpi	r26, 0x4D	; 77
     198:	b2 07       	cpc	r27, r18
     19a:	e1 f7       	brne	.-8      	; 0x194 <.do_clear_bss_loop>
     19c:	0e 94 7a 09 	call	0x12f4	; 0x12f4 <main>
     1a0:	0c 94 76 13 	jmp	0x26ec	; 0x26ec <_exit>

000001a4 <__bad_interrupt>:
     1a4:	0c 94 00 00 	jmp	0	; 0x0 <__vectors>

000001a8 <ADC_init>:
 *  Author: T
 */ 
#include "Macroes.h"
void ADC_init()
{
	DDRC &= ~(1<<DDC5);
     1a8:	3d 98       	cbi	0x07, 5	; 7
	ADMUX |= (1<<MUX0)|(1<<MUX2); // External ref and adc5 selected (1<<REFS0)||(1<<MUX1)|(1<<MUX3)
     1aa:	ec e7       	ldi	r30, 0x7C	; 124
     1ac:	f0 e0       	ldi	r31, 0x00	; 0
     1ae:	80 81       	ld	r24, Z
     1b0:	85 60       	ori	r24, 0x05	; 5
     1b2:	80 83       	st	Z, r24
	DIDR0 |= (1<<ADC5D); // Disable digital input buffer
     1b4:	ee e7       	ldi	r30, 0x7E	; 126
     1b6:	f0 e0       	ldi	r31, 0x00	; 0
     1b8:	80 81       	ld	r24, Z
     1ba:	80 62       	ori	r24, 0x20	; 32
     1bc:	80 83       	st	Z, r24
	ADCSRA |= (1<<ADEN)|(1<<ADIF)|(1<<ADPS0)|(1<<ADPS1)|(1<<ADPS2);   //enable adc
     1be:	ea e7       	ldi	r30, 0x7A	; 122
     1c0:	f0 e0       	ldi	r31, 0x00	; 0
     1c2:	80 81       	ld	r24, Z
     1c4:	87 69       	ori	r24, 0x97	; 151
     1c6:	80 83       	st	Z, r24
     1c8:	08 95       	ret

000001ca <ADC_Sample>:
}

uint16_t ADC_Sample()
{
	ADCSRA|=(1<<ADSC);
     1ca:	ea e7       	ldi	r30, 0x7A	; 122
     1cc:	f0 e0       	ldi	r31, 0x00	; 0
     1ce:	80 81       	ld	r24, Z
     1d0:	80 64       	ori	r24, 0x40	; 64
     1d2:	80 83       	st	Z, r24
	while(!(ADCSRA & (1<<ADIF)));
     1d4:	80 81       	ld	r24, Z
     1d6:	84 ff       	sbrs	r24, 4
     1d8:	fd cf       	rjmp	.-6      	; 0x1d4 <ADC_Sample+0xa>
	return ADC;
     1da:	20 91 78 00 	lds	r18, 0x0078
     1de:	30 91 79 00 	lds	r19, 0x0079
     1e2:	82 2f       	mov	r24, r18
     1e4:	93 2f       	mov	r25, r19
     1e6:	08 95       	ret

000001e8 <GetUID>:
volatile unsigned int usedOere=0, usedKr=0;
char receiveBuffer[64] = "";
volatile unsigned int timeChargedInSeconds = 0;

void GetUID()
{
     1e8:	ef 92       	push	r14
     1ea:	ff 92       	push	r15
     1ec:	0f 93       	push	r16
     1ee:	1f 93       	push	r17
     1f0:	cf 93       	push	r28
     1f2:	df 93       	push	r29
	PORTB &= ~(1<<PORTB2); // SS low to start transfer
     1f4:	2a 98       	cbi	0x05, 2	; 5
	SPI_MasterTransmit('U'); //0x55 Command get UID
     1f6:	85 e5       	ldi	r24, 0x55	; 85
     1f8:	0e 94 59 08 	call	0x10b2	; 0x10b2 <SPI_MasterTransmit>
	PORTB |= (1<<PORTB2); // SS high to end transfer
     1fc:	2a 9a       	sbi	0x05, 2	; 5
	//UART_Transmit_String("Get UID \n");
	//_delay_us(100000);
	startComTimeout = true;
     1fe:	81 e0       	ldi	r24, 0x01	; 1
     200:	80 93 41 06 	sts	0x0641, r24
	cardPresent = false;
     204:	10 92 47 06 	sts	0x0647, r1
	//while((!dataReady) || (!comTimeout));
	while(1)
	{
		if((dataReady) || (comTimeout)) break;
     208:	80 91 46 06 	lds	r24, 0x0646
     20c:	81 11       	cpse	r24, r1
     20e:	04 c0       	rjmp	.+8      	; 0x218 <GetUID+0x30>
     210:	80 91 43 06 	lds	r24, 0x0643
     214:	88 23       	and	r24, r24
     216:	c1 f3       	breq	.-16     	; 0x208 <GetUID+0x20>
	}
	startComTimeout = false;
     218:	10 92 41 06 	sts	0x0641, r1
	comTimeout = false;
     21c:	10 92 43 06 	sts	0x0643, r1
	if (dataReady)
     220:	80 91 46 06 	lds	r24, 0x0646
     224:	88 23       	and	r24, r24
     226:	09 f4       	brne	.+2      	; 0x22a <GetUID+0x42>
     228:	6f c0       	rjmp	.+222    	; 0x308 <GetUID+0x120>
	{
		UART_Transmit_String("Data Ready \n");
     22a:	8b e0       	ldi	r24, 0x0B	; 11
     22c:	91 e0       	ldi	r25, 0x01	; 1
     22e:	0e 94 87 0b 	call	0x170e	; 0x170e <UART_Transmit_String>
		PORTB &= ~(1<<PORTB2); // SS low to start transfer
     232:	2a 98       	cbi	0x05, 2	; 5
		SPI_MasterTransmit(0xF5); // Send dummy data
     234:	85 ef       	ldi	r24, 0xF5	; 245
     236:	0e 94 59 08 	call	0x10b2	; 0x10b2 <SPI_MasterTransmit>
		PORTB |= (1<<PORTB2); // SS high to end transfer
     23a:	2a 9a       	sbi	0x05, 2	; 5
	#else
		//round up by default
		__ticks_dc = (uint32_t)(ceil(fabs(__tmp)));
	#endif

	__builtin_avr_delay_cycles(__ticks_dc);
     23c:	8f e8       	ldi	r24, 0x8F	; 143
     23e:	91 e0       	ldi	r25, 0x01	; 1
     240:	01 97       	sbiw	r24, 0x01	; 1
     242:	f1 f7       	brne	.-4      	; 0x240 <GetUID+0x58>
     244:	00 c0       	rjmp	.+0      	; 0x246 <GetUID+0x5e>
     246:	00 00       	nop
		_delay_us(100);
		if (SPDR == ACK)
     248:	8e b5       	in	r24, 0x2e	; 46
     24a:	86 38       	cpi	r24, 0x86	; 134
     24c:	09 f0       	breq	.+2      	; 0x250 <GetUID+0x68>
     24e:	53 c0       	rjmp	.+166    	; 0x2f6 <GetUID+0x10e>
		{
			sprintf(displayBuffer, "UID = ");
     250:	87 e0       	ldi	r24, 0x07	; 7
     252:	e8 e1       	ldi	r30, 0x18	; 24
     254:	f1 e0       	ldi	r31, 0x01	; 1
     256:	aa ee       	ldi	r26, 0xEA	; 234
     258:	b5 e0       	ldi	r27, 0x05	; 5
     25a:	01 90       	ld	r0, Z+
     25c:	0d 92       	st	X+, r0
     25e:	8a 95       	dec	r24
     260:	e1 f7       	brne	.-8      	; 0x25a <GetUID+0x72>
     262:	07 e0       	ldi	r16, 0x07	; 7
     264:	10 e0       	ldi	r17, 0x00	; 0
			{
				PORTB &= ~(1<<PORTB2); // SS low to start transfer
				SPI_MasterTransmit(0xF5); // Send dummy data
				PORTB |= (1<<PORTB2); // SS high to end transfer
				_delay_us(100);
				sprintf(comBuffer, "%X", SPDR);
     266:	0f 2e       	mov	r0, r31
     268:	ff e1       	ldi	r31, 0x1F	; 31
     26a:	ef 2e       	mov	r14, r31
     26c:	f1 e0       	ldi	r31, 0x01	; 1
     26e:	ff 2e       	mov	r15, r31
     270:	f0 2d       	mov	r31, r0
     272:	ca ea       	ldi	r28, 0xAA	; 170
     274:	d5 e0       	ldi	r29, 0x05	; 5
		if (SPDR == ACK)
		{
			sprintf(displayBuffer, "UID = ");
			for (int i = 1; i <= 7; i++)
			{
				PORTB &= ~(1<<PORTB2); // SS low to start transfer
     276:	2a 98       	cbi	0x05, 2	; 5
				SPI_MasterTransmit(0xF5); // Send dummy data
     278:	85 ef       	ldi	r24, 0xF5	; 245
     27a:	0e 94 59 08 	call	0x10b2	; 0x10b2 <SPI_MasterTransmit>
				PORTB |= (1<<PORTB2); // SS high to end transfer
     27e:	2a 9a       	sbi	0x05, 2	; 5
     280:	8f e8       	ldi	r24, 0x8F	; 143
     282:	91 e0       	ldi	r25, 0x01	; 1
     284:	01 97       	sbiw	r24, 0x01	; 1
     286:	f1 f7       	brne	.-4      	; 0x284 <GetUID+0x9c>
     288:	00 c0       	rjmp	.+0      	; 0x28a <GetUID+0xa2>
     28a:	00 00       	nop
				_delay_us(100);
				sprintf(comBuffer, "%X", SPDR);
     28c:	8e b5       	in	r24, 0x2e	; 46
     28e:	1f 92       	push	r1
     290:	8f 93       	push	r24
     292:	ff 92       	push	r15
     294:	ef 92       	push	r14
     296:	df 93       	push	r29
     298:	cf 93       	push	r28
     29a:	0e 94 f6 12 	call	0x25ec	; 0x25ec <sprintf>
				strcat(displayBuffer,comBuffer);
     29e:	be 01       	movw	r22, r28
     2a0:	8a ee       	ldi	r24, 0xEA	; 234
     2a2:	95 e0       	ldi	r25, 0x05	; 5
     2a4:	0e 94 97 12 	call	0x252e	; 0x252e <strcat>
     2a8:	01 50       	subi	r16, 0x01	; 1
     2aa:	11 09       	sbc	r17, r1
		PORTB |= (1<<PORTB2); // SS high to end transfer
		_delay_us(100);
		if (SPDR == ACK)
		{
			sprintf(displayBuffer, "UID = ");
			for (int i = 1; i <= 7; i++)
     2ac:	0f 90       	pop	r0
     2ae:	0f 90       	pop	r0
     2b0:	0f 90       	pop	r0
     2b2:	0f 90       	pop	r0
     2b4:	0f 90       	pop	r0
     2b6:	0f 90       	pop	r0
     2b8:	f1 f6       	brne	.-68     	; 0x276 <GetUID+0x8e>
				_delay_us(100);
				sprintf(comBuffer, "%X", SPDR);
				strcat(displayBuffer,comBuffer);
				//Disp_char('0'+i);
			}
			strcat(displayBuffer,"\n");
     2ba:	ea ee       	ldi	r30, 0xEA	; 234
     2bc:	f5 e0       	ldi	r31, 0x05	; 5
     2be:	01 90       	ld	r0, Z+
     2c0:	00 20       	and	r0, r0
     2c2:	e9 f7       	brne	.-6      	; 0x2be <GetUID+0xd6>
     2c4:	31 97       	sbiw	r30, 0x01	; 1
     2c6:	8a e0       	ldi	r24, 0x0A	; 10
     2c8:	90 e0       	ldi	r25, 0x00	; 0
     2ca:	91 83       	std	Z+1, r25	; 0x01
     2cc:	80 83       	st	Z, r24
			UART_Transmit_String(displayBuffer);
     2ce:	8a ee       	ldi	r24, 0xEA	; 234
     2d0:	95 e0       	ldi	r25, 0x05	; 5
     2d2:	0e 94 87 0b 	call	0x170e	; 0x170e <UART_Transmit_String>
			strncpy(uID, displayBuffer+6, 8);
     2d6:	48 e0       	ldi	r20, 0x08	; 8
     2d8:	50 e0       	ldi	r21, 0x00	; 0
     2da:	60 ef       	ldi	r22, 0xF0	; 240
     2dc:	75 e0       	ldi	r23, 0x05	; 5
     2de:	8a e2       	ldi	r24, 0x2A	; 42
     2e0:	96 e0       	ldi	r25, 0x06	; 6
     2e2:	0e 94 b0 12 	call	0x2560	; 0x2560 <strncpy>
			UART_Transmit_String(uID);
     2e6:	8a e2       	ldi	r24, 0x2A	; 42
     2e8:	96 e0       	ldi	r25, 0x06	; 6
     2ea:	0e 94 87 0b 	call	0x170e	; 0x170e <UART_Transmit_String>
			gotUID = true;
     2ee:	81 e0       	ldi	r24, 0x01	; 1
     2f0:	80 93 44 06 	sts	0x0644, r24
     2f4:	06 c0       	rjmp	.+12     	; 0x302 <GetUID+0x11a>
		}
		else
		{
			UART_Transmit_String("Command failed \n");
     2f6:	82 e2       	ldi	r24, 0x22	; 34
     2f8:	91 e0       	ldi	r25, 0x01	; 1
     2fa:	0e 94 87 0b 	call	0x170e	; 0x170e <UART_Transmit_String>
			gotUID = false;
     2fe:	10 92 44 06 	sts	0x0644, r1
		}
		dataReady = false;
     302:	10 92 46 06 	sts	0x0646, r1
     306:	08 c0       	rjmp	.+16     	; 0x318 <GetUID+0x130>
	}
	else
	{
		UART_Transmit_String("RFID reader timeout \n");
     308:	83 e3       	ldi	r24, 0x33	; 51
     30a:	91 e0       	ldi	r25, 0x01	; 1
     30c:	0e 94 87 0b 	call	0x170e	; 0x170e <UART_Transmit_String>
		dataReady = false;
     310:	10 92 46 06 	sts	0x0646, r1
		gotUID = false;
     314:	10 92 44 06 	sts	0x0644, r1
	}
}
     318:	df 91       	pop	r29
     31a:	cf 91       	pop	r28
     31c:	1f 91       	pop	r17
     31e:	0f 91       	pop	r16
     320:	ff 90       	pop	r15
     322:	ef 90       	pop	r14
     324:	08 95       	ret

00000326 <SendCommand>:

void SendCommand(char command)
{
     326:	df 92       	push	r13
     328:	ef 92       	push	r14
     32a:	ff 92       	push	r15
     32c:	0f 93       	push	r16
     32e:	1f 93       	push	r17
     330:	cf 93       	push	r28
     332:	df 93       	push	r29
     334:	1f 92       	push	r1
     336:	cd b7       	in	r28, 0x3d	; 61
     338:	de b7       	in	r29, 0x3e	; 62
     33a:	d8 2e       	mov	r13, r24
	char commandString[1];
	sprintf(commandString, "%c", command);
     33c:	1f 92       	push	r1
     33e:	8f 93       	push	r24
     340:	29 e4       	ldi	r18, 0x49	; 73
     342:	31 e0       	ldi	r19, 0x01	; 1
     344:	3f 93       	push	r19
     346:	2f 93       	push	r18
     348:	ee 24       	eor	r14, r14
     34a:	e3 94       	inc	r14
     34c:	f1 2c       	mov	r15, r1
     34e:	ec 0e       	add	r14, r28
     350:	fd 1e       	adc	r15, r29
     352:	ff 92       	push	r15
     354:	ef 92       	push	r14
     356:	0e 94 f6 12 	call	0x25ec	; 0x25ec <sprintf>
	sprintf(comBuffer, START_CHAR);
     35a:	2c e4       	ldi	r18, 0x4C	; 76
     35c:	31 e0       	ldi	r19, 0x01	; 1
     35e:	3f 93       	push	r19
     360:	2f 93       	push	r18
     362:	0a ea       	ldi	r16, 0xAA	; 170
     364:	15 e0       	ldi	r17, 0x05	; 5
     366:	1f 93       	push	r17
     368:	0f 93       	push	r16
     36a:	0e 94 f6 12 	call	0x25ec	; 0x25ec <sprintf>
	strcat(comBuffer, CLIENT_ID);
     36e:	f8 01       	movw	r30, r16
     370:	01 90       	ld	r0, Z+
     372:	00 20       	and	r0, r0
     374:	e9 f7       	brne	.-6      	; 0x370 <SendCommand+0x4a>
     376:	31 97       	sbiw	r30, 0x01	; 1
     378:	40 e3       	ldi	r20, 0x30	; 48
     37a:	50 e3       	ldi	r21, 0x30	; 48
     37c:	61 e3       	ldi	r22, 0x31	; 49
     37e:	70 e0       	ldi	r23, 0x00	; 0
     380:	40 83       	st	Z, r20
     382:	51 83       	std	Z+1, r21	; 0x01
     384:	62 83       	std	Z+2, r22	; 0x02
     386:	73 83       	std	Z+3, r23	; 0x03
	strcat(comBuffer, commandString);
     388:	b7 01       	movw	r22, r14
     38a:	c8 01       	movw	r24, r16
     38c:	0e 94 97 12 	call	0x252e	; 0x252e <strcat>
	switch(command)
     390:	0f b6       	in	r0, 0x3f	; 63
     392:	f8 94       	cli
     394:	de bf       	out	0x3e, r29	; 62
     396:	0f be       	out	0x3f, r0	; 63
     398:	cd bf       	out	0x3d, r28	; 61
     39a:	95 e4       	ldi	r25, 0x45	; 69
     39c:	d9 16       	cp	r13, r25
     39e:	c9 f1       	breq	.+114    	; 0x412 <SendCommand+0xec>
     3a0:	9d 15       	cp	r25, r13
     3a2:	20 f0       	brcs	.+8      	; 0x3ac <SendCommand+0x86>
     3a4:	83 e4       	ldi	r24, 0x43	; 67
     3a6:	d8 12       	cpse	r13, r24
     3a8:	38 c0       	rjmp	.+112    	; 0x41a <SendCommand+0xf4>
     3aa:	1a c0       	rjmp	.+52     	; 0x3e0 <SendCommand+0xba>
     3ac:	9c e4       	ldi	r25, 0x4C	; 76
     3ae:	d9 16       	cp	r13, r25
     3b0:	51 f0       	breq	.+20     	; 0x3c6 <SendCommand+0xa0>
     3b2:	86 e5       	ldi	r24, 0x56	; 86
     3b4:	d8 12       	cpse	r13, r24
     3b6:	31 c0       	rjmp	.+98     	; 0x41a <SendCommand+0xf4>
	{
		case 'V': // Packet: % 001 V UID----- *
		{
			strcat(comBuffer, uID);
     3b8:	6a e2       	ldi	r22, 0x2A	; 42
     3ba:	76 e0       	ldi	r23, 0x06	; 6
     3bc:	8a ea       	ldi	r24, 0xAA	; 170
     3be:	95 e0       	ldi	r25, 0x05	; 5
     3c0:	0e 94 97 12 	call	0x252e	; 0x252e <strcat>
		}
		break;
     3c4:	2a c0       	rjmp	.+84     	; 0x41a <SendCommand+0xf4>
		case 'L': // Packet: % 001 L UID----- PSWD *
		{
			strcat(comBuffer, uID);
     3c6:	6a e2       	ldi	r22, 0x2A	; 42
     3c8:	76 e0       	ldi	r23, 0x06	; 6
     3ca:	8a ea       	ldi	r24, 0xAA	; 170
     3cc:	95 e0       	ldi	r25, 0x05	; 5
     3ce:	0e 94 97 12 	call	0x252e	; 0x252e <strcat>
			strcat(comBuffer, password);
     3d2:	65 ea       	ldi	r22, 0xA5	; 165
     3d4:	75 e0       	ldi	r23, 0x05	; 5
     3d6:	8a ea       	ldi	r24, 0xAA	; 170
     3d8:	95 e0       	ldi	r25, 0x05	; 5
     3da:	0e 94 97 12 	call	0x252e	; 0x252e <strcat>
		}
		break;
     3de:	1d c0       	rjmp	.+58     	; 0x41a <SendCommand+0xf4>
		case 'C': // Packet: % 001 C UID----- KR-- Oe Time- *
		{
			strcat(comBuffer, uID);
     3e0:	6a e2       	ldi	r22, 0x2A	; 42
     3e2:	76 e0       	ldi	r23, 0x06	; 6
     3e4:	8a ea       	ldi	r24, 0xAA	; 170
     3e6:	95 e0       	ldi	r25, 0x05	; 5
     3e8:	0e 94 97 12 	call	0x252e	; 0x252e <strcat>
			strcat(comBuffer, amountKr);
     3ec:	6b e9       	ldi	r22, 0x9B	; 155
     3ee:	75 e0       	ldi	r23, 0x05	; 5
     3f0:	8a ea       	ldi	r24, 0xAA	; 170
     3f2:	95 e0       	ldi	r25, 0x05	; 5
     3f4:	0e 94 97 12 	call	0x252e	; 0x252e <strcat>
			strcat(comBuffer, amountOere);
     3f8:	68 e9       	ldi	r22, 0x98	; 152
     3fa:	75 e0       	ldi	r23, 0x05	; 5
     3fc:	8a ea       	ldi	r24, 0xAA	; 170
     3fe:	95 e0       	ldi	r25, 0x05	; 5
     400:	0e 94 97 12 	call	0x252e	; 0x252e <strcat>
			strcat(comBuffer, timeStamp);
     404:	62 e9       	ldi	r22, 0x92	; 146
     406:	75 e0       	ldi	r23, 0x05	; 5
     408:	8a ea       	ldi	r24, 0xAA	; 170
     40a:	95 e0       	ldi	r25, 0x05	; 5
     40c:	0e 94 97 12 	call	0x252e	; 0x252e <strcat>
		}
		break;
     410:	04 c0       	rjmp	.+8      	; 0x41a <SendCommand+0xf4>
		case 'E': // Packet: % 001 L UID----- PSWD *
		{
			UART_Transmit_String("Error Command State");
     412:	8f e4       	ldi	r24, 0x4F	; 79
     414:	91 e0       	ldi	r25, 0x01	; 1
     416:	0e 94 87 0b 	call	0x170e	; 0x170e <UART_Transmit_String>
		}
		break;
		default : command='E'; break;
	}
	strcat(comBuffer, STOP_CHAR);
     41a:	ea ea       	ldi	r30, 0xAA	; 170
     41c:	f5 e0       	ldi	r31, 0x05	; 5
     41e:	01 90       	ld	r0, Z+
     420:	00 20       	and	r0, r0
     422:	e9 f7       	brne	.-6      	; 0x41e <SendCommand+0xf8>
     424:	31 97       	sbiw	r30, 0x01	; 1
     426:	8a e2       	ldi	r24, 0x2A	; 42
     428:	90 e0       	ldi	r25, 0x00	; 0
     42a:	91 83       	std	Z+1, r25	; 0x01
     42c:	80 83       	st	Z, r24
	UART_Transmit_String("Packet send\n");
     42e:	83 e6       	ldi	r24, 0x63	; 99
     430:	91 e0       	ldi	r25, 0x01	; 1
     432:	0e 94 87 0b 	call	0x170e	; 0x170e <UART_Transmit_String>
	UART_Transmit_String(comBuffer);
     436:	8a ea       	ldi	r24, 0xAA	; 170
     438:	95 e0       	ldi	r25, 0x05	; 5
     43a:	0e 94 87 0b 	call	0x170e	; 0x170e <UART_Transmit_String>
	//sprintf(amountOere, "%02u", usedOere);
	//UART_Transmit_String(amountOere);
	//UART_Transmit_String("\nTime in seconds");
	//sprintf(timeStamp, "%05u", timeChargedInSeconds);
	//UART_Transmit_String(timeStamp);
}
     43e:	0f 90       	pop	r0
     440:	df 91       	pop	r29
     442:	cf 91       	pop	r28
     444:	1f 91       	pop	r17
     446:	0f 91       	pop	r16
     448:	ff 90       	pop	r15
     44a:	ef 90       	pop	r14
     44c:	df 90       	pop	r13
     44e:	08 95       	ret

00000450 <CardKnown>:

bool CardKnown()
{
	SendCommand(VALIDATE_CARD_COMMAND);
     450:	86 e5       	ldi	r24, 0x56	; 86
     452:	0e 94 93 01 	call	0x326	; 0x326 <SendCommand>
	packetReceived = false;
     456:	10 92 3f 06 	sts	0x063F, r1
	startComTimeout = true;
     45a:	81 e0       	ldi	r24, 0x01	; 1
     45c:	80 93 41 06 	sts	0x0641, r24
	//while(!packetReceived || !comTimeout); // Implement when com is working
	//startReadTimeout = false;
	//while(!packetReceived);
	while(1)
	{
		if((packetReceived) || (comTimeout)) break;
     460:	80 91 3f 06 	lds	r24, 0x063F
     464:	81 11       	cpse	r24, r1
     466:	04 c0       	rjmp	.+8      	; 0x470 <CardKnown+0x20>
     468:	80 91 43 06 	lds	r24, 0x0643
     46c:	88 23       	and	r24, r24
     46e:	c1 f3       	breq	.-16     	; 0x460 <CardKnown+0x10>
	}
	startComTimeout = false;
     470:	10 92 41 06 	sts	0x0641, r1
	comTimeout = false;
     474:	10 92 43 06 	sts	0x0643, r1
	if (packetReceived)
     478:	80 91 3f 06 	lds	r24, 0x063F
     47c:	88 23       	and	r24, r24
     47e:	c1 f1       	breq	.+112    	; 0x4f0 <CardKnown+0xa0>
	{
		UART_Transmit_String("receiveBuffer content\n");
     480:	80 e7       	ldi	r24, 0x70	; 112
     482:	91 e0       	ldi	r25, 0x01	; 1
     484:	0e 94 87 0b 	call	0x170e	; 0x170e <UART_Transmit_String>
		UART_Transmit_String(receiveBuffer); //Packet expected: %001Atrue*
     488:	8e e4       	ldi	r24, 0x4E	; 78
     48a:	95 e0       	ldi	r25, 0x05	; 5
     48c:	0e 94 87 0b 	call	0x170e	; 0x170e <UART_Transmit_String>
		memcpy(passResult,receiveBuffer+5, 4);
     490:	80 91 53 05 	lds	r24, 0x0553
     494:	90 91 54 05 	lds	r25, 0x0554
     498:	a0 91 55 05 	lds	r26, 0x0555
     49c:	b0 91 56 05 	lds	r27, 0x0556
     4a0:	80 93 a0 05 	sts	0x05A0, r24
     4a4:	90 93 a1 05 	sts	0x05A1, r25
     4a8:	a0 93 a2 05 	sts	0x05A2, r26
     4ac:	b0 93 a3 05 	sts	0x05A3, r27
		passResult[4] = '\0';   /* null character manually added */
     4b0:	10 92 a4 05 	sts	0x05A4, r1
		UART_Transmit_String("validate card passResult content\n");
     4b4:	87 e8       	ldi	r24, 0x87	; 135
     4b6:	91 e0       	ldi	r25, 0x01	; 1
     4b8:	0e 94 87 0b 	call	0x170e	; 0x170e <UART_Transmit_String>
		UART_Transmit_String(passResult);
     4bc:	80 ea       	ldi	r24, 0xA0	; 160
     4be:	95 e0       	ldi	r25, 0x05	; 5
     4c0:	0e 94 87 0b 	call	0x170e	; 0x170e <UART_Transmit_String>
		memset(receiveBuffer, '\0', sizeof(receiveBuffer));
     4c4:	80 e4       	ldi	r24, 0x40	; 64
     4c6:	ee e4       	ldi	r30, 0x4E	; 78
     4c8:	f5 e0       	ldi	r31, 0x05	; 5
     4ca:	df 01       	movw	r26, r30
     4cc:	1d 92       	st	X+, r1
     4ce:	8a 95       	dec	r24
     4d0:	e9 f7       	brne	.-6      	; 0x4cc <CardKnown+0x7c>
		if (strncmp (passResult,"true",4) == 0)
     4d2:	44 e0       	ldi	r20, 0x04	; 4
     4d4:	50 e0       	ldi	r21, 0x00	; 0
     4d6:	69 ea       	ldi	r22, 0xA9	; 169
     4d8:	71 e0       	ldi	r23, 0x01	; 1
     4da:	80 ea       	ldi	r24, 0xA0	; 160
     4dc:	95 e0       	ldi	r25, 0x05	; 5
     4de:	0e 94 a2 12 	call	0x2544	; 0x2544 <strncmp>
     4e2:	28 2f       	mov	r18, r24
     4e4:	39 2f       	mov	r19, r25
     4e6:	81 e0       	ldi	r24, 0x01	; 1
     4e8:	23 2b       	or	r18, r19
     4ea:	39 f0       	breq	.+14     	; 0x4fa <CardKnown+0xaa>
     4ec:	80 e0       	ldi	r24, 0x00	; 0
     4ee:	08 95       	ret
			return false;
		}
	}
	else
	{
		UART_Transmit_String("Cardknown communication timeout\n");
     4f0:	8e ea       	ldi	r24, 0xAE	; 174
     4f2:	91 e0       	ldi	r25, 0x01	; 1
     4f4:	0e 94 87 0b 	call	0x170e	; 0x170e <UART_Transmit_String>
		return false;
     4f8:	80 e0       	ldi	r24, 0x00	; 0
	}
	
}
     4fa:	08 95       	ret

000004fc <ValidatePassword>:

bool ValidatePassword()
{
     4fc:	cf 93       	push	r28
     4fe:	df 93       	push	r29
	for (int i = 0; i < 4;)
     500:	c0 e0       	ldi	r28, 0x00	; 0
     502:	d0 e0       	ldi	r29, 0x00	; 0
	{
		char keyP = KBDchar(1);
     504:	81 e0       	ldi	r24, 0x01	; 1
     506:	0e 94 07 08 	call	0x100e	; 0x100e <KBDchar>
		if (keyP != 0 && keyP != 'C')
     50a:	88 23       	and	r24, r24
     50c:	79 f0       	breq	.+30     	; 0x52c <ValidatePassword+0x30>
     50e:	83 34       	cpi	r24, 0x43	; 67
     510:	41 f0       	breq	.+16     	; 0x522 <ValidatePassword+0x26>
		{
			password[i] = keyP;
     512:	fe 01       	movw	r30, r28
     514:	eb 55       	subi	r30, 0x5B	; 91
     516:	fa 4f       	sbci	r31, 0xFA	; 250
     518:	80 83       	st	Z, r24
			Disp_char(keyP);
     51a:	0e 94 df 05 	call	0xbbe	; 0xbbe <Disp_char>
			i++;
     51e:	21 96       	adiw	r28, 0x01	; 1
     520:	05 c0       	rjmp	.+10     	; 0x52c <ValidatePassword+0x30>
		}
		else if (keyP == 'C')
		{
			cancelPassword = true;
     522:	81 e0       	ldi	r24, 0x01	; 1
     524:	80 93 3e 06 	sts	0x063E, r24
			return false;
     528:	80 e0       	ldi	r24, 0x00	; 0
     52a:	60 c0       	rjmp	.+192    	; 0x5ec <ValidatePassword+0xf0>
	
}

bool ValidatePassword()
{
	for (int i = 0; i < 4;)
     52c:	c4 30       	cpi	r28, 0x04	; 4
     52e:	d1 05       	cpc	r29, r1
     530:	4c f3       	brlt	.-46     	; 0x504 <ValidatePassword+0x8>
		{
			cancelPassword = true;
			return false;
		}
	}
	UART_Transmit_String("Password typed\n");
     532:	8f ec       	ldi	r24, 0xCF	; 207
     534:	91 e0       	ldi	r25, 0x01	; 1
     536:	0e 94 87 0b 	call	0x170e	; 0x170e <UART_Transmit_String>
	UART_Transmit_String(password);
     53a:	85 ea       	ldi	r24, 0xA5	; 165
     53c:	95 e0       	ldi	r25, 0x05	; 5
     53e:	0e 94 87 0b 	call	0x170e	; 0x170e <UART_Transmit_String>
	SendCommand(LOGIN_COMMAND);
     542:	8c e4       	ldi	r24, 0x4C	; 76
     544:	0e 94 93 01 	call	0x326	; 0x326 <SendCommand>
	packetReceived = false;
     548:	10 92 3f 06 	sts	0x063F, r1
	startComTimeout = true;
     54c:	81 e0       	ldi	r24, 0x01	; 1
     54e:	80 93 41 06 	sts	0x0641, r24
	//while(!packetReceived || !comTimeout); // Implement when com is working
	//startReadTimeout = false;
	//while(!packetReceived);
	while(1)
	{
		if((packetReceived) || (comTimeout)) break;
     552:	80 91 3f 06 	lds	r24, 0x063F
     556:	81 11       	cpse	r24, r1
     558:	04 c0       	rjmp	.+8      	; 0x562 <ValidatePassword+0x66>
     55a:	80 91 43 06 	lds	r24, 0x0643
     55e:	88 23       	and	r24, r24
     560:	c1 f3       	breq	.-16     	; 0x552 <ValidatePassword+0x56>
	}
	startComTimeout = false;
     562:	10 92 41 06 	sts	0x0641, r1
	comTimeout = false;
     566:	10 92 43 06 	sts	0x0643, r1
	if (packetReceived)
     56a:	80 91 3f 06 	lds	r24, 0x063F
     56e:	88 23       	and	r24, r24
     570:	c1 f1       	breq	.+112    	; 0x5e2 <ValidatePassword+0xe6>
	{
		UART_Transmit_String("receiveBuffer content\n");
     572:	80 e7       	ldi	r24, 0x70	; 112
     574:	91 e0       	ldi	r25, 0x01	; 1
     576:	0e 94 87 0b 	call	0x170e	; 0x170e <UART_Transmit_String>
		UART_Transmit_String(receiveBuffer); //Packet expected: %001A00000001001truexxxx*
     57a:	8e e4       	ldi	r24, 0x4E	; 78
     57c:	95 e0       	ldi	r25, 0x05	; 5
     57e:	0e 94 87 0b 	call	0x170e	; 0x170e <UART_Transmit_String>
		memcpy(passResult,receiveBuffer+16, 4);
     582:	80 91 5e 05 	lds	r24, 0x055E
     586:	90 91 5f 05 	lds	r25, 0x055F
     58a:	a0 91 60 05 	lds	r26, 0x0560
     58e:	b0 91 61 05 	lds	r27, 0x0561
     592:	80 93 a0 05 	sts	0x05A0, r24
     596:	90 93 a1 05 	sts	0x05A1, r25
     59a:	a0 93 a2 05 	sts	0x05A2, r26
     59e:	b0 93 a3 05 	sts	0x05A3, r27
		passResult[4] = '\0';   /* null character manually added */
     5a2:	10 92 a4 05 	sts	0x05A4, r1
		UART_Transmit_String("passwordResult content\n");
     5a6:	8f ed       	ldi	r24, 0xDF	; 223
     5a8:	91 e0       	ldi	r25, 0x01	; 1
     5aa:	0e 94 87 0b 	call	0x170e	; 0x170e <UART_Transmit_String>
		UART_Transmit_String(passResult);
     5ae:	80 ea       	ldi	r24, 0xA0	; 160
     5b0:	95 e0       	ldi	r25, 0x05	; 5
     5b2:	0e 94 87 0b 	call	0x170e	; 0x170e <UART_Transmit_String>
		memset(receiveBuffer, '\0', sizeof(receiveBuffer));
     5b6:	80 e4       	ldi	r24, 0x40	; 64
     5b8:	ee e4       	ldi	r30, 0x4E	; 78
     5ba:	f5 e0       	ldi	r31, 0x05	; 5
     5bc:	df 01       	movw	r26, r30
     5be:	1d 92       	st	X+, r1
     5c0:	8a 95       	dec	r24
     5c2:	e9 f7       	brne	.-6      	; 0x5be <ValidatePassword+0xc2>
		if (strncmp (passResult,"true",4) == 0) // if (strncmp (receiveBuffer,"%001A00000001001true",20) == 0)
     5c4:	44 e0       	ldi	r20, 0x04	; 4
     5c6:	50 e0       	ldi	r21, 0x00	; 0
     5c8:	69 ea       	ldi	r22, 0xA9	; 169
     5ca:	71 e0       	ldi	r23, 0x01	; 1
     5cc:	80 ea       	ldi	r24, 0xA0	; 160
     5ce:	95 e0       	ldi	r25, 0x05	; 5
     5d0:	0e 94 a2 12 	call	0x2544	; 0x2544 <strncmp>
     5d4:	28 2f       	mov	r18, r24
     5d6:	39 2f       	mov	r19, r25
     5d8:	81 e0       	ldi	r24, 0x01	; 1
     5da:	23 2b       	or	r18, r19
     5dc:	39 f0       	breq	.+14     	; 0x5ec <ValidatePassword+0xf0>
     5de:	80 e0       	ldi	r24, 0x00	; 0
     5e0:	05 c0       	rjmp	.+10     	; 0x5ec <ValidatePassword+0xf0>
			return false;
		}
	}
	else
	{
		UART_Transmit_String("Validate password communication timeout\n");
     5e2:	87 ef       	ldi	r24, 0xF7	; 247
     5e4:	91 e0       	ldi	r25, 0x01	; 1
     5e6:	0e 94 87 0b 	call	0x170e	; 0x170e <UART_Transmit_String>
		return false;
     5ea:	80 e0       	ldi	r24, 0x00	; 0
	}
}
     5ec:	df 91       	pop	r29
     5ee:	cf 91       	pop	r28
     5f0:	08 95       	ret

000005f2 <UploadFinishedCharge>:

bool UploadFinishedCharge()
{
	SendCommand(UPLOAD_CHARGE_COMMAND);
     5f2:	83 e4       	ldi	r24, 0x43	; 67
     5f4:	0e 94 93 01 	call	0x326	; 0x326 <SendCommand>
	packetReceived = false;
     5f8:	10 92 3f 06 	sts	0x063F, r1
	startComTimeout = true;
     5fc:	81 e0       	ldi	r24, 0x01	; 1
     5fe:	80 93 41 06 	sts	0x0641, r24
	//while(!packetReceived || !comTimeout); // Implement when com is working
	while(1)
	{
		if((packetReceived) || (comTimeout)) break;
     602:	80 91 3f 06 	lds	r24, 0x063F
     606:	81 11       	cpse	r24, r1
     608:	04 c0       	rjmp	.+8      	; 0x612 <UploadFinishedCharge+0x20>
     60a:	80 91 43 06 	lds	r24, 0x0643
     60e:	88 23       	and	r24, r24
     610:	c1 f3       	breq	.-16     	; 0x602 <UploadFinishedCharge+0x10>
	}
	startComTimeout = false;
     612:	10 92 41 06 	sts	0x0641, r1
	comTimeout = false;
     616:	10 92 43 06 	sts	0x0643, r1
	if (packetReceived)
     61a:	80 91 3f 06 	lds	r24, 0x063F
     61e:	88 23       	and	r24, r24
     620:	c1 f1       	breq	.+112    	; 0x692 <UploadFinishedCharge+0xa0>
	{
		UART_Transmit_String("receiveBuffer content. Expected: %001Atrue*\n");
     622:	80 e2       	ldi	r24, 0x20	; 32
     624:	92 e0       	ldi	r25, 0x02	; 2
     626:	0e 94 87 0b 	call	0x170e	; 0x170e <UART_Transmit_String>
		UART_Transmit_String(receiveBuffer); //Packet expected: %001Atrue*
     62a:	8e e4       	ldi	r24, 0x4E	; 78
     62c:	95 e0       	ldi	r25, 0x05	; 5
     62e:	0e 94 87 0b 	call	0x170e	; 0x170e <UART_Transmit_String>
		memcpy(passResult,receiveBuffer+5, 4);
     632:	80 91 53 05 	lds	r24, 0x0553
     636:	90 91 54 05 	lds	r25, 0x0554
     63a:	a0 91 55 05 	lds	r26, 0x0555
     63e:	b0 91 56 05 	lds	r27, 0x0556
     642:	80 93 a0 05 	sts	0x05A0, r24
     646:	90 93 a1 05 	sts	0x05A1, r25
     64a:	a0 93 a2 05 	sts	0x05A2, r26
     64e:	b0 93 a3 05 	sts	0x05A3, r27
		passResult[4] = '\0';   /* null character manually added */
     652:	10 92 a4 05 	sts	0x05A4, r1
		UART_Transmit_String("Acknowledge passResult content\n");
     656:	8d e4       	ldi	r24, 0x4D	; 77
     658:	92 e0       	ldi	r25, 0x02	; 2
     65a:	0e 94 87 0b 	call	0x170e	; 0x170e <UART_Transmit_String>
		UART_Transmit_String(passResult);
     65e:	80 ea       	ldi	r24, 0xA0	; 160
     660:	95 e0       	ldi	r25, 0x05	; 5
     662:	0e 94 87 0b 	call	0x170e	; 0x170e <UART_Transmit_String>
		memset(receiveBuffer, '\0', sizeof(receiveBuffer));
     666:	80 e4       	ldi	r24, 0x40	; 64
     668:	ee e4       	ldi	r30, 0x4E	; 78
     66a:	f5 e0       	ldi	r31, 0x05	; 5
     66c:	df 01       	movw	r26, r30
     66e:	1d 92       	st	X+, r1
     670:	8a 95       	dec	r24
     672:	e9 f7       	brne	.-6      	; 0x66e <UploadFinishedCharge+0x7c>
		if (strncmp (passResult,"true",4) == 0)
     674:	44 e0       	ldi	r20, 0x04	; 4
     676:	50 e0       	ldi	r21, 0x00	; 0
     678:	69 ea       	ldi	r22, 0xA9	; 169
     67a:	71 e0       	ldi	r23, 0x01	; 1
     67c:	80 ea       	ldi	r24, 0xA0	; 160
     67e:	95 e0       	ldi	r25, 0x05	; 5
     680:	0e 94 a2 12 	call	0x2544	; 0x2544 <strncmp>
     684:	28 2f       	mov	r18, r24
     686:	39 2f       	mov	r19, r25
     688:	81 e0       	ldi	r24, 0x01	; 1
     68a:	23 2b       	or	r18, r19
     68c:	39 f0       	breq	.+14     	; 0x69c <UploadFinishedCharge+0xaa>
     68e:	80 e0       	ldi	r24, 0x00	; 0
     690:	08 95       	ret
			return false;
		}
	}
	else
	{
		UART_Transmit_String("Upload Charge Communication timeout\n");
     692:	8d e6       	ldi	r24, 0x6D	; 109
     694:	92 e0       	ldi	r25, 0x02	; 2
     696:	0e 94 87 0b 	call	0x170e	; 0x170e <UART_Transmit_String>
		return false;
     69a:	80 e0       	ldi	r24, 0x00	; 0
	}
	
}
     69c:	08 95       	ret

0000069e <TryConnection>:

void TryConnection()
{
	UART_Transmit_String("Try connection function\n");
     69e:	82 e9       	ldi	r24, 0x92	; 146
     6a0:	92 e0       	ldi	r25, 0x02	; 2
     6a2:	0e 94 87 0b 	call	0x170e	; 0x170e <UART_Transmit_String>
	noConnection = true;
     6a6:	81 e0       	ldi	r24, 0x01	; 1
     6a8:	80 93 4c 06 	sts	0x064C, r24
	while(noConnection)
     6ac:	80 91 4c 06 	lds	r24, 0x064C
     6b0:	88 23       	and	r24, r24
     6b2:	99 f0       	breq	.+38     	; 0x6da <TryConnection+0x3c>
	{
		if (tryConnect)
     6b4:	80 91 4b 06 	lds	r24, 0x064B
     6b8:	88 23       	and	r24, r24
     6ba:	49 f0       	breq	.+18     	; 0x6ce <TryConnection+0x30>
		{
			UART_Transmit_String("try connect interval\n");
     6bc:	8b ea       	ldi	r24, 0xAB	; 171
     6be:	92 e0       	ldi	r25, 0x02	; 2
     6c0:	0e 94 87 0b 	call	0x170e	; 0x170e <UART_Transmit_String>
			if (UploadFinishedCharge()) noConnection = false;
     6c4:	0e 94 f9 02 	call	0x5f2	; 0x5f2 <UploadFinishedCharge>
     6c8:	81 11       	cpse	r24, r1
     6ca:	10 92 4c 06 	sts	0x064C, r1
		}
		tryConnect = false;
     6ce:	10 92 4b 06 	sts	0x064B, r1

void TryConnection()
{
	UART_Transmit_String("Try connection function\n");
	noConnection = true;
	while(noConnection)
     6d2:	80 91 4c 06 	lds	r24, 0x064C
     6d6:	81 11       	cpse	r24, r1
     6d8:	ed cf       	rjmp	.-38     	; 0x6b4 <TryConnection+0x16>
     6da:	08 95       	ret

000006dc <CarConnected>:
	}
}

bool CarConnected()
{
	startConnectCarTimeout = true;
     6dc:	81 e0       	ldi	r24, 0x01	; 1
     6de:	80 93 40 06 	sts	0x0640, r24
	UART_Transmit_String("wait for timeout\n");
     6e2:	81 ec       	ldi	r24, 0xC1	; 193
     6e4:	92 e0       	ldi	r25, 0x02	; 2
     6e6:	0e 94 87 0b 	call	0x170e	; 0x170e <UART_Transmit_String>
	//while(!carConnected || !connectCarTimeout); // Timeout virker ikke på denne måde?
	while(1)
	{
		if((ADC_Sample() > 10) || (connectCarTimeout)) break;
     6ea:	0e 94 e5 00 	call	0x1ca	; 0x1ca <ADC_Sample>
     6ee:	0b 97       	sbiw	r24, 0x0b	; 11
     6f0:	20 f4       	brcc	.+8      	; 0x6fa <CarConnected+0x1e>
     6f2:	80 91 42 06 	lds	r24, 0x0642
     6f6:	88 23       	and	r24, r24
     6f8:	c1 f3       	breq	.-16     	; 0x6ea <CarConnected+0xe>
	}
	startConnectCarTimeout = false;
     6fa:	10 92 40 06 	sts	0x0640, r1
	if (!connectCarTimeout)
     6fe:	80 91 42 06 	lds	r24, 0x0642
     702:	88 23       	and	r24, r24
     704:	41 f0       	breq	.+16     	; 0x716 <CarConnected+0x3a>
	{
		return true;
	}
	else
	{
		UART_Transmit_String("connect car timeout\n");
     706:	83 ed       	ldi	r24, 0xD3	; 211
     708:	92 e0       	ldi	r25, 0x02	; 2
     70a:	0e 94 87 0b 	call	0x170e	; 0x170e <UART_Transmit_String>
		connectCarTimeout = false;
     70e:	10 92 42 06 	sts	0x0642, r1
		return false;
     712:	80 e0       	ldi	r24, 0x00	; 0
     714:	08 95       	ret
		if((ADC_Sample() > 10) || (connectCarTimeout)) break;
	}
	startConnectCarTimeout = false;
	if (!connectCarTimeout)
	{
		return true;
     716:	81 e0       	ldi	r24, 0x01	; 1
	{
		UART_Transmit_String("connect car timeout\n");
		connectCarTimeout = false;
		return false;
	}
}
     718:	08 95       	ret

0000071a <BeginCharging>:

void BeginCharging()
{
     71a:	2f 92       	push	r2
     71c:	3f 92       	push	r3
     71e:	4f 92       	push	r4
     720:	5f 92       	push	r5
     722:	6f 92       	push	r6
     724:	7f 92       	push	r7
     726:	8f 92       	push	r8
     728:	9f 92       	push	r9
     72a:	af 92       	push	r10
     72c:	bf 92       	push	r11
     72e:	cf 92       	push	r12
     730:	df 92       	push	r13
     732:	ef 92       	push	r14
     734:	ff 92       	push	r15
     736:	0f 93       	push	r16
     738:	1f 93       	push	r17
     73a:	cf 93       	push	r28
     73c:	df 93       	push	r29
	double energy=0, power=0, price = 0;
	uint16_t data=0, lastData=0;
	keypadActive = true;
     73e:	81 e0       	ldi	r24, 0x01	; 1
     740:	80 93 45 06 	sts	0x0645, r24
	chargingActive = true;
     744:	80 93 49 06 	sts	0x0649, r24
}

void BeginCharging()
{
	double energy=0, power=0, price = 0;
	uint16_t data=0, lastData=0;
     748:	00 e0       	ldi	r16, 0x00	; 0
     74a:	10 e0       	ldi	r17, 0x00	; 0
	}
}

void BeginCharging()
{
	double energy=0, power=0, price = 0;
     74c:	41 2c       	mov	r4, r1
     74e:	51 2c       	mov	r5, r1
     750:	e1 2c       	mov	r14, r1
     752:	f1 2c       	mov	r15, r1
     754:	61 2c       	mov	r6, r1
     756:	71 2c       	mov	r7, r1
     758:	81 2c       	mov	r8, r1
     75a:	91 2c       	mov	r9, r1
     75c:	a1 2c       	mov	r10, r1
     75e:	b1 2c       	mov	r11, r1
     760:	c1 2c       	mov	r12, r1
     762:	d1 2c       	mov	r13, r1
	uint16_t data=0, lastData=0;
	keypadActive = true;
	chargingActive = true;
	while (chargingActive)
     764:	64 c1       	rjmp	.+712    	; 0xa2e <__stack+0x12f>
	{
		if (takeSample)
     766:	80 91 4a 06 	lds	r24, 0x064A
     76a:	88 23       	and	r24, r24
     76c:	09 f4       	brne	.+2      	; 0x770 <BeginCharging+0x56>
     76e:	2a c1       	rjmp	.+596    	; 0x9c4 <__stack+0xc5>
		{
			data=ADC_Sample();
     770:	0e 94 e5 00 	call	0x1ca	; 0x1ca <ADC_Sample>
     774:	ec 01       	movw	r28, r24
			if((lastData!=data) && data > 0) //Only update display if needed (any change)
     776:	08 17       	cp	r16, r24
     778:	19 07       	cpc	r17, r25
     77a:	09 f4       	brne	.+2      	; 0x77e <BeginCharging+0x64>
     77c:	4a c0       	rjmp	.+148    	; 0x812 <BeginCharging+0xf8>
     77e:	00 97       	sbiw	r24, 0x00	; 0
     780:	09 f4       	brne	.+2      	; 0x784 <BeginCharging+0x6a>
     782:	4a c0       	rjmp	.+148    	; 0x818 <BeginCharging+0xfe>
			{
				Disp_GotoXY(13,1);
     784:	61 e0       	ldi	r22, 0x01	; 1
     786:	70 e0       	ldi	r23, 0x00	; 0
     788:	8d e0       	ldi	r24, 0x0D	; 13
     78a:	90 e0       	ldi	r25, 0x00	; 0
     78c:	0e 94 cc 05 	call	0xb98	; 0xb98 <Disp_GotoXY>
				sprintf(displayBuffer, "%4u", data);
     790:	df 93       	push	r29
     792:	cf 93       	push	r28
     794:	88 ee       	ldi	r24, 0xE8	; 232
     796:	92 e0       	ldi	r25, 0x02	; 2
     798:	9f 93       	push	r25
     79a:	8f 93       	push	r24
     79c:	0a ee       	ldi	r16, 0xEA	; 234
     79e:	15 e0       	ldi	r17, 0x05	; 5
     7a0:	1f 93       	push	r17
     7a2:	0f 93       	push	r16
     7a4:	0e 94 f6 12 	call	0x25ec	; 0x25ec <sprintf>
				Disp_printString(displayBuffer);
     7a8:	c8 01       	movw	r24, r16
     7aa:	0e 94 16 06 	call	0xc2c	; 0xc2c <Disp_printString>
				//if (data == 0) power = 0; // Avoid dividing by zero
				//else power = (double)data/409,2; //((2/5)*1023);   //mW 0.4*1023 = 409.2 // uW 0.4*1.023
				power = (double)data/409.2; //((2/5)*1023);   //mW 0.4*1023 = 409.2 // uW 0.4*1.023
     7ae:	be 01       	movw	r22, r28
     7b0:	80 e0       	ldi	r24, 0x00	; 0
     7b2:	90 e0       	ldi	r25, 0x00	; 0
     7b4:	0e 94 93 0c 	call	0x1926	; 0x1926 <__floatunsisf>
     7b8:	2a e9       	ldi	r18, 0x9A	; 154
     7ba:	39 e9       	ldi	r19, 0x99	; 153
     7bc:	4c ec       	ldi	r20, 0xCC	; 204
     7be:	53 e4       	ldi	r21, 0x43	; 67
     7c0:	0e 94 ff 0b 	call	0x17fe	; 0x17fe <__divsf3>
     7c4:	f6 2e       	mov	r15, r22
     7c6:	e7 2e       	mov	r14, r23
     7c8:	58 2e       	mov	r5, r24
     7ca:	49 2e       	mov	r4, r25
     7cc:	66 2e       	mov	r6, r22
     7ce:	77 2e       	mov	r7, r23
     7d0:	88 2e       	mov	r8, r24
     7d2:	99 2e       	mov	r9, r25
				Disp_GotoXY(3,1);
     7d4:	61 e0       	ldi	r22, 0x01	; 1
     7d6:	70 e0       	ldi	r23, 0x00	; 0
     7d8:	83 e0       	ldi	r24, 0x03	; 3
     7da:	90 e0       	ldi	r25, 0x00	; 0
     7dc:	0e 94 cc 05 	call	0xb98	; 0xb98 <Disp_GotoXY>
				sprintf(displayBuffer, "%.2f", power);
     7e0:	4f 92       	push	r4
     7e2:	5f 92       	push	r5
     7e4:	ef 92       	push	r14
     7e6:	ff 92       	push	r15
     7e8:	8c ee       	ldi	r24, 0xEC	; 236
     7ea:	92 e0       	ldi	r25, 0x02	; 2
     7ec:	9f 93       	push	r25
     7ee:	8f 93       	push	r24
     7f0:	1f 93       	push	r17
     7f2:	0f 93       	push	r16
     7f4:	0e 94 f6 12 	call	0x25ec	; 0x25ec <sprintf>
				Disp_printString(displayBuffer);
     7f8:	c8 01       	movw	r24, r16
     7fa:	0e 94 16 06 	call	0xc2c	; 0xc2c <Disp_printString>
				lastData=data;
     7fe:	8d b7       	in	r24, 0x3d	; 61
     800:	9e b7       	in	r25, 0x3e	; 62
     802:	0e 96       	adiw	r24, 0x0e	; 14
     804:	0f b6       	in	r0, 0x3f	; 63
     806:	f8 94       	cli
     808:	9e bf       	out	0x3e, r25	; 62
     80a:	0f be       	out	0x3f, r0	; 63
     80c:	8d bf       	out	0x3d, r24	; 61
     80e:	8e 01       	movw	r16, r28
     810:	2d c0       	rjmp	.+90     	; 0x86c <BeginCharging+0x152>
			}
			else if (data == 0)
     812:	01 15       	cp	r16, r1
     814:	11 05       	cpc	r17, r1
     816:	51 f5       	brne	.+84     	; 0x86c <BeginCharging+0x152>
			{
				usedKr = floor(price);
     818:	64 2d       	mov	r22, r4
     81a:	75 2d       	mov	r23, r5
     81c:	8e 2d       	mov	r24, r14
     81e:	9f 2d       	mov	r25, r15
     820:	0e 94 d0 0c 	call	0x19a0	; 0x19a0 <floor>
     824:	0e 94 67 0c 	call	0x18ce	; 0x18ce <__fixunssfsi>
     828:	70 93 8f 05 	sts	0x058F, r23
     82c:	60 93 8e 05 	sts	0x058E, r22
				usedOere = (price-usedKr)*100;
     830:	60 91 8e 05 	lds	r22, 0x058E
     834:	70 91 8f 05 	lds	r23, 0x058F
     838:	80 e0       	ldi	r24, 0x00	; 0
     83a:	90 e0       	ldi	r25, 0x00	; 0
     83c:	0e 94 93 0c 	call	0x1926	; 0x1926 <__floatunsisf>
     840:	9b 01       	movw	r18, r22
     842:	ac 01       	movw	r20, r24
     844:	64 2d       	mov	r22, r4
     846:	75 2d       	mov	r23, r5
     848:	8e 2d       	mov	r24, r14
     84a:	9f 2d       	mov	r25, r15
     84c:	0e 94 96 0b 	call	0x172c	; 0x172c <__subsf3>
     850:	20 e0       	ldi	r18, 0x00	; 0
     852:	30 e0       	ldi	r19, 0x00	; 0
     854:	48 ec       	ldi	r20, 0xC8	; 200
     856:	52 e4       	ldi	r21, 0x42	; 66
     858:	0e 94 98 0d 	call	0x1b30	; 0x1b30 <__mulsf3>
     85c:	0e 94 67 0c 	call	0x18ce	; 0x18ce <__fixunssfsi>
     860:	70 93 91 05 	sts	0x0591, r23
     864:	60 93 90 05 	sts	0x0590, r22
				chargingActive = false;
     868:	10 92 49 06 	sts	0x0649, r1
			}
			energy += power;
     86c:	26 2d       	mov	r18, r6
     86e:	37 2d       	mov	r19, r7
     870:	48 2d       	mov	r20, r8
     872:	59 2d       	mov	r21, r9
     874:	6a 2d       	mov	r22, r10
     876:	7b 2d       	mov	r23, r11
     878:	8c 2d       	mov	r24, r12
     87a:	9d 2d       	mov	r25, r13
     87c:	0e 94 97 0b 	call	0x172e	; 0x172e <__addsf3>
     880:	e6 2e       	mov	r14, r22
     882:	f7 2e       	mov	r15, r23
     884:	d8 2f       	mov	r29, r24
     886:	c9 2f       	mov	r28, r25
     888:	a6 2e       	mov	r10, r22
     88a:	b7 2e       	mov	r11, r23
     88c:	c8 2e       	mov	r12, r24
     88e:	d9 2e       	mov	r13, r25
			Disp_GotoXY(3,2);
     890:	62 e0       	ldi	r22, 0x02	; 2
     892:	70 e0       	ldi	r23, 0x00	; 0
     894:	83 e0       	ldi	r24, 0x03	; 3
     896:	90 e0       	ldi	r25, 0x00	; 0
     898:	0e 94 cc 05 	call	0xb98	; 0xb98 <Disp_GotoXY>
			if (energy < 9999) sprintf(displayBuffer, "%.1f", energy);
     89c:	20 e0       	ldi	r18, 0x00	; 0
     89e:	3c e3       	ldi	r19, 0x3C	; 60
     8a0:	4c e1       	ldi	r20, 0x1C	; 28
     8a2:	56 e4       	ldi	r21, 0x46	; 70
     8a4:	6e 2d       	mov	r22, r14
     8a6:	7f 2d       	mov	r23, r15
     8a8:	8d 2f       	mov	r24, r29
     8aa:	9c 2f       	mov	r25, r28
     8ac:	0e 94 fb 0b 	call	0x17f6	; 0x17f6 <__cmpsf2>
     8b0:	88 23       	and	r24, r24
     8b2:	bc f4       	brge	.+46     	; 0x8e2 <BeginCharging+0x1c8>
     8b4:	cf 93       	push	r28
     8b6:	df 93       	push	r29
     8b8:	ff 92       	push	r15
     8ba:	ef 92       	push	r14
     8bc:	81 ef       	ldi	r24, 0xF1	; 241
     8be:	92 e0       	ldi	r25, 0x02	; 2
     8c0:	9f 93       	push	r25
     8c2:	8f 93       	push	r24
     8c4:	8a ee       	ldi	r24, 0xEA	; 234
     8c6:	95 e0       	ldi	r25, 0x05	; 5
     8c8:	9f 93       	push	r25
     8ca:	8f 93       	push	r24
     8cc:	0e 94 f6 12 	call	0x25ec	; 0x25ec <sprintf>
     8d0:	8d b7       	in	r24, 0x3d	; 61
     8d2:	9e b7       	in	r25, 0x3e	; 62
     8d4:	08 96       	adiw	r24, 0x08	; 8
     8d6:	0f b6       	in	r0, 0x3f	; 63
     8d8:	f8 94       	cli
     8da:	9e bf       	out	0x3e, r25	; 62
     8dc:	0f be       	out	0x3f, r0	; 63
     8de:	8d bf       	out	0x3d, r24	; 61
     8e0:	16 c0       	rjmp	.+44     	; 0x90e <__stack+0xf>
			else sprintf(displayBuffer, "%5.f", energy);
     8e2:	cf 93       	push	r28
     8e4:	df 93       	push	r29
     8e6:	ff 92       	push	r15
     8e8:	ef 92       	push	r14
     8ea:	86 ef       	ldi	r24, 0xF6	; 246
     8ec:	92 e0       	ldi	r25, 0x02	; 2
     8ee:	9f 93       	push	r25
     8f0:	8f 93       	push	r24
     8f2:	8a ee       	ldi	r24, 0xEA	; 234
     8f4:	95 e0       	ldi	r25, 0x05	; 5
     8f6:	9f 93       	push	r25
     8f8:	8f 93       	push	r24
     8fa:	0e 94 f6 12 	call	0x25ec	; 0x25ec <sprintf>
     8fe:	8d b7       	in	r24, 0x3d	; 61
     900:	9e b7       	in	r25, 0x3e	; 62
     902:	08 96       	adiw	r24, 0x08	; 8
     904:	0f b6       	in	r0, 0x3f	; 63
     906:	f8 94       	cli
     908:	9e bf       	out	0x3e, r25	; 62
     90a:	0f be       	out	0x3f, r0	; 63
     90c:	8d bf       	out	0x3d, r24	; 61
			Disp_printString(displayBuffer);
     90e:	8a ee       	ldi	r24, 0xEA	; 234
     910:	95 e0       	ldi	r25, 0x05	; 5
     912:	0e 94 16 06 	call	0xc2c	; 0xc2c <Disp_printString>
			price = energy*KR_PR_MWS;
     916:	20 e0       	ldi	r18, 0x00	; 0
     918:	30 e0       	ldi	r19, 0x00	; 0
     91a:	40 e0       	ldi	r20, 0x00	; 0
     91c:	5f e3       	ldi	r21, 0x3F	; 63
     91e:	6e 2d       	mov	r22, r14
     920:	7f 2d       	mov	r23, r15
     922:	8d 2f       	mov	r24, r29
     924:	9c 2f       	mov	r25, r28
     926:	0e 94 98 0d 	call	0x1b30	; 0x1b30 <__mulsf3>
     92a:	c6 2f       	mov	r28, r22
     92c:	d7 2f       	mov	r29, r23
     92e:	38 2e       	mov	r3, r24
     930:	29 2e       	mov	r2, r25
     932:	46 2e       	mov	r4, r22
     934:	57 2e       	mov	r5, r23
     936:	e8 2e       	mov	r14, r24
     938:	f9 2e       	mov	r15, r25
			Disp_GotoXY(11,2);
     93a:	62 e0       	ldi	r22, 0x02	; 2
     93c:	70 e0       	ldi	r23, 0x00	; 0
     93e:	8b e0       	ldi	r24, 0x0B	; 11
     940:	90 e0       	ldi	r25, 0x00	; 0
     942:	0e 94 cc 05 	call	0xb98	; 0xb98 <Disp_GotoXY>
			if (price < 99) sprintf(displayBuffer, "%.1f", price);
     946:	20 e0       	ldi	r18, 0x00	; 0
     948:	30 e0       	ldi	r19, 0x00	; 0
     94a:	46 ec       	ldi	r20, 0xC6	; 198
     94c:	52 e4       	ldi	r21, 0x42	; 66
     94e:	6c 2f       	mov	r22, r28
     950:	7d 2f       	mov	r23, r29
     952:	83 2d       	mov	r24, r3
     954:	92 2d       	mov	r25, r2
     956:	0e 94 fb 0b 	call	0x17f6	; 0x17f6 <__cmpsf2>
     95a:	88 23       	and	r24, r24
     95c:	bc f4       	brge	.+46     	; 0x98c <__stack+0x8d>
     95e:	2f 92       	push	r2
     960:	3f 92       	push	r3
     962:	df 93       	push	r29
     964:	cf 93       	push	r28
     966:	81 ef       	ldi	r24, 0xF1	; 241
     968:	92 e0       	ldi	r25, 0x02	; 2
     96a:	9f 93       	push	r25
     96c:	8f 93       	push	r24
     96e:	8a ee       	ldi	r24, 0xEA	; 234
     970:	95 e0       	ldi	r25, 0x05	; 5
     972:	9f 93       	push	r25
     974:	8f 93       	push	r24
     976:	0e 94 f6 12 	call	0x25ec	; 0x25ec <sprintf>
     97a:	8d b7       	in	r24, 0x3d	; 61
     97c:	9e b7       	in	r25, 0x3e	; 62
     97e:	08 96       	adiw	r24, 0x08	; 8
     980:	0f b6       	in	r0, 0x3f	; 63
     982:	f8 94       	cli
     984:	9e bf       	out	0x3e, r25	; 62
     986:	0f be       	out	0x3f, r0	; 63
     988:	8d bf       	out	0x3d, r24	; 61
     98a:	16 c0       	rjmp	.+44     	; 0x9b8 <__stack+0xb9>
			else sprintf(displayBuffer, "%4.f", price);
     98c:	2f 92       	push	r2
     98e:	3f 92       	push	r3
     990:	df 93       	push	r29
     992:	cf 93       	push	r28
     994:	8b ef       	ldi	r24, 0xFB	; 251
     996:	92 e0       	ldi	r25, 0x02	; 2
     998:	9f 93       	push	r25
     99a:	8f 93       	push	r24
     99c:	8a ee       	ldi	r24, 0xEA	; 234
     99e:	95 e0       	ldi	r25, 0x05	; 5
     9a0:	9f 93       	push	r25
     9a2:	8f 93       	push	r24
     9a4:	0e 94 f6 12 	call	0x25ec	; 0x25ec <sprintf>
     9a8:	8d b7       	in	r24, 0x3d	; 61
     9aa:	9e b7       	in	r25, 0x3e	; 62
     9ac:	08 96       	adiw	r24, 0x08	; 8
     9ae:	0f b6       	in	r0, 0x3f	; 63
     9b0:	f8 94       	cli
     9b2:	9e bf       	out	0x3e, r25	; 62
     9b4:	0f be       	out	0x3f, r0	; 63
     9b6:	8d bf       	out	0x3d, r24	; 61
			//sprintf(displayBuffer, "%.1f", price);
			Disp_printString(displayBuffer);
     9b8:	8a ee       	ldi	r24, 0xEA	; 234
     9ba:	95 e0       	ldi	r25, 0x05	; 5
     9bc:	0e 94 16 06 	call	0xc2c	; 0xc2c <Disp_printString>
			takeSample = false;
     9c0:	10 92 4a 06 	sts	0x064A, r1
		}
		if (readKeys)
     9c4:	80 91 48 06 	lds	r24, 0x0648
     9c8:	88 23       	and	r24, r24
     9ca:	89 f1       	breq	.+98     	; 0xa2e <__stack+0x12f>
		{
			char keyP = KBDchar(1);
     9cc:	81 e0       	ldi	r24, 0x01	; 1
     9ce:	0e 94 07 08 	call	0x100e	; 0x100e <KBDchar>
			if (keyP == 'C')
     9d2:	83 34       	cpi	r24, 0x43	; 67
     9d4:	51 f5       	brne	.+84     	; 0xa2a <__stack+0x12b>
			{
				usedKr = floor(price);
     9d6:	64 2d       	mov	r22, r4
     9d8:	75 2d       	mov	r23, r5
     9da:	8e 2d       	mov	r24, r14
     9dc:	9f 2d       	mov	r25, r15
     9de:	0e 94 d0 0c 	call	0x19a0	; 0x19a0 <floor>
     9e2:	0e 94 67 0c 	call	0x18ce	; 0x18ce <__fixunssfsi>
     9e6:	70 93 8f 05 	sts	0x058F, r23
     9ea:	60 93 8e 05 	sts	0x058E, r22
				usedOere = (price-usedKr)*100;
     9ee:	60 91 8e 05 	lds	r22, 0x058E
     9f2:	70 91 8f 05 	lds	r23, 0x058F
     9f6:	80 e0       	ldi	r24, 0x00	; 0
     9f8:	90 e0       	ldi	r25, 0x00	; 0
     9fa:	0e 94 93 0c 	call	0x1926	; 0x1926 <__floatunsisf>
     9fe:	9b 01       	movw	r18, r22
     a00:	ac 01       	movw	r20, r24
     a02:	64 2d       	mov	r22, r4
     a04:	75 2d       	mov	r23, r5
     a06:	8e 2d       	mov	r24, r14
     a08:	9f 2d       	mov	r25, r15
     a0a:	0e 94 96 0b 	call	0x172c	; 0x172c <__subsf3>
     a0e:	20 e0       	ldi	r18, 0x00	; 0
     a10:	30 e0       	ldi	r19, 0x00	; 0
     a12:	48 ec       	ldi	r20, 0xC8	; 200
     a14:	52 e4       	ldi	r21, 0x42	; 66
     a16:	0e 94 98 0d 	call	0x1b30	; 0x1b30 <__mulsf3>
     a1a:	0e 94 67 0c 	call	0x18ce	; 0x18ce <__fixunssfsi>
     a1e:	70 93 91 05 	sts	0x0591, r23
     a22:	60 93 90 05 	sts	0x0590, r22
				chargingActive = false;
     a26:	10 92 49 06 	sts	0x0649, r1
			}
			readKeys = false;
     a2a:	10 92 48 06 	sts	0x0648, r1
{
	double energy=0, power=0, price = 0;
	uint16_t data=0, lastData=0;
	keypadActive = true;
	chargingActive = true;
	while (chargingActive)
     a2e:	80 91 49 06 	lds	r24, 0x0649
     a32:	81 11       	cpse	r24, r1
     a34:	98 ce       	rjmp	.-720    	; 0x766 <BeginCharging+0x4c>
				chargingActive = false;
			}
			readKeys = false;
		}
	}
	keypadActive = false;
     a36:	10 92 45 06 	sts	0x0645, r1
	UART_Transmit_String("\nKr ");
     a3a:	80 e0       	ldi	r24, 0x00	; 0
     a3c:	93 e0       	ldi	r25, 0x03	; 3
     a3e:	0e 94 87 0b 	call	0x170e	; 0x170e <UART_Transmit_String>
	sprintf(amountKr, "%04u", usedKr);
     a42:	80 91 8e 05 	lds	r24, 0x058E
     a46:	90 91 8f 05 	lds	r25, 0x058F
     a4a:	9f 93       	push	r25
     a4c:	8f 93       	push	r24
     a4e:	85 e0       	ldi	r24, 0x05	; 5
     a50:	93 e0       	ldi	r25, 0x03	; 3
     a52:	9f 93       	push	r25
     a54:	8f 93       	push	r24
     a56:	8b e9       	ldi	r24, 0x9B	; 155
     a58:	95 e0       	ldi	r25, 0x05	; 5
     a5a:	9f 93       	push	r25
     a5c:	8f 93       	push	r24
     a5e:	0e 94 f6 12 	call	0x25ec	; 0x25ec <sprintf>
	UART_Transmit_String(amountKr);
     a62:	8b e9       	ldi	r24, 0x9B	; 155
     a64:	95 e0       	ldi	r25, 0x05	; 5
     a66:	0e 94 87 0b 	call	0x170e	; 0x170e <UART_Transmit_String>
	UART_Transmit_String("\nOere ");
     a6a:	8a e0       	ldi	r24, 0x0A	; 10
     a6c:	93 e0       	ldi	r25, 0x03	; 3
     a6e:	0e 94 87 0b 	call	0x170e	; 0x170e <UART_Transmit_String>
	sprintf(amountOere, "%02u", usedOere);
     a72:	80 91 90 05 	lds	r24, 0x0590
     a76:	90 91 91 05 	lds	r25, 0x0591
     a7a:	9f 93       	push	r25
     a7c:	8f 93       	push	r24
     a7e:	81 e1       	ldi	r24, 0x11	; 17
     a80:	93 e0       	ldi	r25, 0x03	; 3
     a82:	9f 93       	push	r25
     a84:	8f 93       	push	r24
     a86:	88 e9       	ldi	r24, 0x98	; 152
     a88:	95 e0       	ldi	r25, 0x05	; 5
     a8a:	9f 93       	push	r25
     a8c:	8f 93       	push	r24
     a8e:	0e 94 f6 12 	call	0x25ec	; 0x25ec <sprintf>
	UART_Transmit_String(amountOere);
     a92:	88 e9       	ldi	r24, 0x98	; 152
     a94:	95 e0       	ldi	r25, 0x05	; 5
     a96:	0e 94 87 0b 	call	0x170e	; 0x170e <UART_Transmit_String>
	UART_Transmit_String("\nTime in seconds");
     a9a:	86 e1       	ldi	r24, 0x16	; 22
     a9c:	93 e0       	ldi	r25, 0x03	; 3
     a9e:	0e 94 87 0b 	call	0x170e	; 0x170e <UART_Transmit_String>
	sprintf(timeStamp, "%05u", timeChargedInSeconds);
     aa2:	80 91 4c 05 	lds	r24, 0x054C
     aa6:	90 91 4d 05 	lds	r25, 0x054D
     aaa:	9f 93       	push	r25
     aac:	8f 93       	push	r24
     aae:	87 e2       	ldi	r24, 0x27	; 39
     ab0:	93 e0       	ldi	r25, 0x03	; 3
     ab2:	9f 93       	push	r25
     ab4:	8f 93       	push	r24
     ab6:	82 e9       	ldi	r24, 0x92	; 146
     ab8:	95 e0       	ldi	r25, 0x05	; 5
     aba:	9f 93       	push	r25
     abc:	8f 93       	push	r24
     abe:	0e 94 f6 12 	call	0x25ec	; 0x25ec <sprintf>
	UART_Transmit_String(timeStamp);
     ac2:	82 e9       	ldi	r24, 0x92	; 146
     ac4:	95 e0       	ldi	r25, 0x05	; 5
     ac6:	0e 94 87 0b 	call	0x170e	; 0x170e <UART_Transmit_String>
     aca:	8d b7       	in	r24, 0x3d	; 61
     acc:	9e b7       	in	r25, 0x3e	; 62
     ace:	42 96       	adiw	r24, 0x12	; 18
     ad0:	0f b6       	in	r0, 0x3f	; 63
     ad2:	f8 94       	cli
     ad4:	9e bf       	out	0x3e, r25	; 62
     ad6:	0f be       	out	0x3f, r0	; 63
     ad8:	8d bf       	out	0x3d, r24	; 61
     ada:	df 91       	pop	r29
     adc:	cf 91       	pop	r28
     ade:	1f 91       	pop	r17
     ae0:	0f 91       	pop	r16
     ae2:	ff 90       	pop	r15
     ae4:	ef 90       	pop	r14
     ae6:	df 90       	pop	r13
     ae8:	cf 90       	pop	r12
     aea:	bf 90       	pop	r11
     aec:	af 90       	pop	r10
     aee:	9f 90       	pop	r9
     af0:	8f 90       	pop	r8
     af2:	7f 90       	pop	r7
     af4:	6f 90       	pop	r6
     af6:	5f 90       	pop	r5
     af8:	4f 90       	pop	r4
     afa:	3f 90       	pop	r3
     afc:	2f 90       	pop	r2
     afe:	08 95       	ret

00000b00 <Disp_command>:
	displayAddress++;
}

void Disp_command(char command)
{
	SPCR |= (1<<DORD); // Send LSB first
     b00:	9c b5       	in	r25, 0x2c	; 44
     b02:	90 62       	ori	r25, 0x20	; 32
     b04:	9c bd       	out	0x2c, r25	; 44
	DDRB |= (1<<DDB1); // Shift register Output Enable
     b06:	21 9a       	sbi	0x04, 1	; 4
	PORTB |= (1<<PORTB1); // Shift register Output Enable high (active low)
     b08:	29 9a       	sbi	0x05, 1	; 5
	DDRB |= (1<<DDB0); // Enable display output
     b0a:	20 9a       	sbi	0x04, 0	; 4
	PORTB &= ~(1<<PORTB0); // Enable display low
     b0c:	28 98       	cbi	0x05, 0	; 5
	DDRC |= (1<<DDC4); // RS output
     b0e:	3c 9a       	sbi	0x07, 4	; 7
	PORTC &= ~(1<<PORTC4); // RS low = instruction
     b10:	44 98       	cbi	0x08, 4	; 8
	SPI_MasterTransmit(command);
     b12:	0e 94 59 08 	call	0x10b2	; 0x10b2 <SPI_MasterTransmit>
	SPCR &= ~(1<<DORD); // Reset to MSB first
     b16:	8c b5       	in	r24, 0x2c	; 44
     b18:	8f 7d       	andi	r24, 0xDF	; 223
     b1a:	8c bd       	out	0x2c, r24	; 44
	PORTB |= (1<<PORTB0); // Enable display high
     b1c:	28 9a       	sbi	0x05, 0	; 5
	PORTB &= ~(1<<PORTB1); // Shift register Output Enable low (active low)
     b1e:	29 98       	cbi	0x05, 1	; 5
     b20:	87 ec       	ldi	r24, 0xC7	; 199
     b22:	90 e0       	ldi	r25, 0x00	; 0
     b24:	01 97       	sbiw	r24, 0x01	; 1
     b26:	f1 f7       	brne	.-4      	; 0xb24 <Disp_command+0x24>
     b28:	00 c0       	rjmp	.+0      	; 0xb2a <Disp_command+0x2a>
     b2a:	00 00       	nop
	_delay_us(50);
	PORTB &= ~(1<<PORTB0); // Enable display low
     b2c:	28 98       	cbi	0x05, 0	; 5
     b2e:	8f e7       	ldi	r24, 0x7F	; 127
     b30:	9c e0       	ldi	r25, 0x0C	; 12
     b32:	01 97       	sbiw	r24, 0x01	; 1
     b34:	f1 f7       	brne	.-4      	; 0xb32 <Disp_command+0x32>
     b36:	00 c0       	rjmp	.+0      	; 0xb38 <Disp_command+0x38>
     b38:	00 00       	nop
     b3a:	08 95       	ret

00000b3c <Disp_init>:
	#else
		//round up by default
		__ticks_dc = (uint32_t)(ceil(fabs(__tmp)));
	#endif

	__builtin_avr_delay_cycles(__ticks_dc);
     b3c:	2f ef       	ldi	r18, 0xFF	; 255
     b3e:	80 e7       	ldi	r24, 0x70	; 112
     b40:	92 e0       	ldi	r25, 0x02	; 2
     b42:	21 50       	subi	r18, 0x01	; 1
     b44:	80 40       	sbci	r24, 0x00	; 0
     b46:	90 40       	sbci	r25, 0x00	; 0
     b48:	e1 f7       	brne	.-8      	; 0xb42 <Disp_init+0x6>
     b4a:	00 c0       	rjmp	.+0      	; 0xb4c <Disp_init+0x10>
     b4c:	00 00       	nop
}

void Disp_init()
{
	_delay_ms(50);
	Disp_command(0b00111000); // 0b00111000
     b4e:	88 e3       	ldi	r24, 0x38	; 56
     b50:	0e 94 80 05 	call	0xb00	; 0xb00 <Disp_command>
	#else
		//round up by default
		__ticks_dc = (uint32_t)(ceil(fabs(__tmp)));
	#endif

	__builtin_avr_delay_cycles(__ticks_dc);
     b54:	87 ec       	ldi	r24, 0xC7	; 199
     b56:	90 e0       	ldi	r25, 0x00	; 0
     b58:	01 97       	sbiw	r24, 0x01	; 1
     b5a:	f1 f7       	brne	.-4      	; 0xb58 <Disp_init+0x1c>
     b5c:	00 c0       	rjmp	.+0      	; 0xb5e <Disp_init+0x22>
     b5e:	00 00       	nop
	_delay_us(50);
	Disp_command(0b00001111); // 0b00001111
     b60:	8f e0       	ldi	r24, 0x0F	; 15
     b62:	0e 94 80 05 	call	0xb00	; 0xb00 <Disp_command>
     b66:	8f ec       	ldi	r24, 0xCF	; 207
     b68:	97 e0       	ldi	r25, 0x07	; 7
     b6a:	01 97       	sbiw	r24, 0x01	; 1
     b6c:	f1 f7       	brne	.-4      	; 0xb6a <Disp_init+0x2e>
     b6e:	00 c0       	rjmp	.+0      	; 0xb70 <Disp_init+0x34>
     b70:	00 00       	nop
	_delay_us(500);
	Disp_command(0b00000001); // 0b00000001
     b72:	81 e0       	ldi	r24, 0x01	; 1
     b74:	0e 94 80 05 	call	0xb00	; 0xb00 <Disp_command>
     b78:	8f e8       	ldi	r24, 0x8F	; 143
     b7a:	91 e0       	ldi	r25, 0x01	; 1
     b7c:	01 97       	sbiw	r24, 0x01	; 1
     b7e:	f1 f7       	brne	.-4      	; 0xb7c <Disp_init+0x40>
     b80:	00 c0       	rjmp	.+0      	; 0xb82 <Disp_init+0x46>
     b82:	00 00       	nop
	_delay_us(100);
	Disp_command(0b00000110); // 0b00000111
     b84:	86 e0       	ldi	r24, 0x06	; 6
     b86:	0e 94 80 05 	call	0xb00	; 0xb00 <Disp_command>
     b8a:	8f e9       	ldi	r24, 0x9F	; 159
     b8c:	9f e0       	ldi	r25, 0x0F	; 15
     b8e:	01 97       	sbiw	r24, 0x01	; 1
     b90:	f1 f7       	brne	.-4      	; 0xb8e <Disp_init+0x52>
     b92:	00 c0       	rjmp	.+0      	; 0xb94 <Disp_init+0x58>
     b94:	00 00       	nop
     b96:	08 95       	ret

00000b98 <Disp_GotoXY>:
	_delay_us(1000);
}

void Disp_GotoXY (int x,int y)   // Go to position x (max 16) in line y (max 2).
{
	if (y == 2) displayAddress = x + 16;
     b98:	62 30       	cpi	r22, 0x02	; 2
     b9a:	71 05       	cpc	r23, r1
     b9c:	29 f4       	brne	.+10     	; 0xba8 <Disp_GotoXY+0x10>
     b9e:	98 2f       	mov	r25, r24
     ba0:	90 5f       	subi	r25, 0xF0	; 240
     ba2:	90 93 00 01 	sts	0x0100, r25
     ba6:	02 c0       	rjmp	.+4      	; 0xbac <Disp_GotoXY+0x14>
	else displayAddress = x;
     ba8:	80 93 00 01 	sts	0x0100, r24
	char lineaddr = ((y-1) * 0x40 + (x-1)) | 0x80;// Put the x position
     bac:	90 e4       	ldi	r25, 0x40	; 64
     bae:	69 9f       	mul	r22, r25
     bb0:	80 0d       	add	r24, r0
     bb2:	11 24       	eor	r1, r1
     bb4:	81 54       	subi	r24, 0x41	; 65
	Disp_command(lineaddr);           // Send a command with 'lineaddr'
     bb6:	80 68       	ori	r24, 0x80	; 128
     bb8:	0e 94 80 05 	call	0xb00	; 0xb00 <Disp_command>
     bbc:	08 95       	ret

00000bbe <Disp_char>:
#include "Macroes.h"
static uint8_t displayAddress = 1;
enum state {stateIdle, stateCarConnected, stateCardSwiped, stateTypePassword, stateWrongPassword, stateCharging, stateChargingStopped, stateDisconnectCar, stateUploadToDB, stateDBoffline, stateUnknownCard, stateDisableCard,stateCardReadError,stateConnectCar,stateErrorState};

void Disp_char(char data)
{
     bbe:	cf 93       	push	r28
     bc0:	c8 2f       	mov	r28, r24
	//static uint8_t displayAddress = 1;
	if (displayAddress == 17) Disp_GotoXY(1,2);
     bc2:	90 91 00 01 	lds	r25, 0x0100
     bc6:	91 31       	cpi	r25, 0x11	; 17
     bc8:	39 f4       	brne	.+14     	; 0xbd8 <Disp_char+0x1a>
     bca:	62 e0       	ldi	r22, 0x02	; 2
     bcc:	70 e0       	ldi	r23, 0x00	; 0
     bce:	81 e0       	ldi	r24, 0x01	; 1
     bd0:	90 e0       	ldi	r25, 0x00	; 0
     bd2:	0e 94 cc 05 	call	0xb98	; 0xb98 <Disp_GotoXY>
     bd6:	0b c0       	rjmp	.+22     	; 0xbee <Disp_char+0x30>
	else if (displayAddress == 33)
     bd8:	91 32       	cpi	r25, 0x21	; 33
     bda:	49 f4       	brne	.+18     	; 0xbee <Disp_char+0x30>
	{
		 Disp_GotoXY(1,1);
     bdc:	61 e0       	ldi	r22, 0x01	; 1
     bde:	70 e0       	ldi	r23, 0x00	; 0
     be0:	81 e0       	ldi	r24, 0x01	; 1
     be2:	90 e0       	ldi	r25, 0x00	; 0
     be4:	0e 94 cc 05 	call	0xb98	; 0xb98 <Disp_GotoXY>
		 displayAddress = 1;
     be8:	81 e0       	ldi	r24, 0x01	; 1
     bea:	80 93 00 01 	sts	0x0100, r24
	}
	DDRC |= (1<<DDC4); // RS output
     bee:	3c 9a       	sbi	0x07, 4	; 7
	PORTC |= (1<<PORTC4); // RS high = data
     bf0:	44 9a       	sbi	0x08, 4	; 8
	SPCR |= (1<<DORD); // Send LSB first
     bf2:	8c b5       	in	r24, 0x2c	; 44
     bf4:	80 62       	ori	r24, 0x20	; 32
     bf6:	8c bd       	out	0x2c, r24	; 44
	DDRB |= (1<<DDB1); // Shift register Output Enable
     bf8:	21 9a       	sbi	0x04, 1	; 4
	PORTB |= (1<<PORTB1); // Shift register Output Enable high (active low)
     bfa:	29 9a       	sbi	0x05, 1	; 5
	DDRB |= (1<<DDB0); // Enable display output
     bfc:	20 9a       	sbi	0x04, 0	; 4
	PORTB &= ~(1<<PORTB0); // Enable display low
     bfe:	28 98       	cbi	0x05, 0	; 5

	SPI_MasterTransmit(data);
     c00:	8c 2f       	mov	r24, r28
     c02:	0e 94 59 08 	call	0x10b2	; 0x10b2 <SPI_MasterTransmit>
	SPCR &= ~(1<<DORD); // Reset to MSB
     c06:	8c b5       	in	r24, 0x2c	; 44
     c08:	8f 7d       	andi	r24, 0xDF	; 223
     c0a:	8c bd       	out	0x2c, r24	; 44
	PORTB |= (1<<PORTB0); // Enable display high
     c0c:	28 9a       	sbi	0x05, 0	; 5
	PORTB &= ~(1<<PORTB1);
     c0e:	29 98       	cbi	0x05, 1	; 5
     c10:	87 ec       	ldi	r24, 0xC7	; 199
     c12:	90 e0       	ldi	r25, 0x00	; 0
     c14:	01 97       	sbiw	r24, 0x01	; 1
     c16:	f1 f7       	brne	.-4      	; 0xc14 <Disp_char+0x56>
     c18:	00 c0       	rjmp	.+0      	; 0xc1a <Disp_char+0x5c>
     c1a:	00 00       	nop
	//PORTB |= (1<<PORTB0); // Enable display high
	_delay_us(50);
	PORTB &= ~(1<<PORTB0); // Enable display low
     c1c:	28 98       	cbi	0x05, 0	; 5
	//PORTB |= (1<<PORTB1);
	//PORTB &= ~(1<<PORTB1);
	displayAddress++;
     c1e:	80 91 00 01 	lds	r24, 0x0100
     c22:	8f 5f       	subi	r24, 0xFF	; 255
     c24:	80 93 00 01 	sts	0x0100, r24
}
     c28:	cf 91       	pop	r28
     c2a:	08 95       	ret

00000c2c <Disp_printString>:
	//PORTB |= (1<<PORTB1);
	//PORTB &= ~(1<<PORTB1);
}

void Disp_printString (char *str)
{
     c2c:	cf 93       	push	r28
     c2e:	df 93       	push	r29
     c30:	ec 01       	movw	r28, r24
	while (*str > 0)              // Continue until the pointer reaches -
     c32:	88 81       	ld	r24, Y
     c34:	88 23       	and	r24, r24
     c36:	31 f0       	breq	.+12     	; 0xc44 <Disp_printString+0x18>
	_delay_us(800);
	//PORTB |= (1<<PORTB1);
	//PORTB &= ~(1<<PORTB1);
}

void Disp_printString (char *str)
     c38:	21 96       	adiw	r28, 0x01	; 1
{
	while (*str > 0)              // Continue until the pointer reaches -
	{                             // the zero termination of the string
		Disp_char(*str);           // Send the value of the pointer address
     c3a:	0e 94 df 05 	call	0xbbe	; 0xbbe <Disp_char>
	//PORTB &= ~(1<<PORTB1);
}

void Disp_printString (char *str)
{
	while (*str > 0)              // Continue until the pointer reaches -
     c3e:	89 91       	ld	r24, Y+
     c40:	81 11       	cpse	r24, r1
     c42:	fb cf       	rjmp	.-10     	; 0xc3a <Disp_printString+0xe>
	{                             // the zero termination of the string
		Disp_char(*str);           // Send the value of the pointer address
		str++;                     // Increment pointer
	}
}
     c44:	df 91       	pop	r29
     c46:	cf 91       	pop	r28
     c48:	08 95       	ret

00000c4a <Disp_clear>:
	Disp_command(lineaddr);           // Send a command with 'lineaddr'
}

void Disp_clear (void)
{
	Disp_command(0x01);      // Send command '0x01' (Display Clear)
     c4a:	81 e0       	ldi	r24, 0x01	; 1
     c4c:	0e 94 80 05 	call	0xb00	; 0xb00 <Disp_command>
     c50:	08 95       	ret

00000c52 <Disp_printState>:
}


void Disp_printState(int state)
{
	switch(state)
     c52:	88 30       	cpi	r24, 0x08	; 8
     c54:	91 05       	cpc	r25, r1
     c56:	09 f4       	brne	.+2      	; 0xc5a <Disp_printState+0x8>
     c58:	25 c1       	rjmp	.+586    	; 0xea4 <Disp_printState+0x252>
     c5a:	94 f4       	brge	.+36     	; 0xc80 <Disp_printState+0x2e>
     c5c:	84 30       	cpi	r24, 0x04	; 4
     c5e:	91 05       	cpc	r25, r1
     c60:	09 f4       	brne	.+2      	; 0xc64 <Disp_printState+0x12>
     c62:	6f c0       	rjmp	.+222    	; 0xd42 <Disp_printState+0xf0>
     c64:	34 f4       	brge	.+12     	; 0xc72 <Disp_printState+0x20>
     c66:	00 97       	sbiw	r24, 0x00	; 0
     c68:	11 f1       	breq	.+68     	; 0xcae <Disp_printState+0x5c>
     c6a:	03 97       	sbiw	r24, 0x03	; 3
     c6c:	09 f0       	breq	.+2      	; 0xc70 <Disp_printState+0x1e>
     c6e:	49 c1       	rjmp	.+658    	; 0xf02 <Disp_printState+0x2b0>
     c70:	35 c0       	rjmp	.+106    	; 0xcdc <Disp_printState+0x8a>
     c72:	86 30       	cpi	r24, 0x06	; 6
     c74:	91 05       	cpc	r25, r1
     c76:	09 f4       	brne	.+2      	; 0xc7a <Disp_printState+0x28>
     c78:	db c0       	rjmp	.+438    	; 0xe30 <Disp_printState+0x1de>
     c7a:	0c f0       	brlt	.+2      	; 0xc7e <Disp_printState+0x2c>
     c7c:	06 c1       	rjmp	.+524    	; 0xe8a <Disp_printState+0x238>
     c7e:	c1 c0       	rjmp	.+386    	; 0xe02 <Disp_printState+0x1b0>
     c80:	8b 30       	cpi	r24, 0x0B	; 11
     c82:	91 05       	cpc	r25, r1
     c84:	09 f4       	brne	.+2      	; 0xc88 <Disp_printState+0x36>
     c86:	7d c0       	rjmp	.+250    	; 0xd82 <Disp_printState+0x130>
     c88:	44 f4       	brge	.+16     	; 0xc9a <Disp_printState+0x48>
     c8a:	89 30       	cpi	r24, 0x09	; 9
     c8c:	91 05       	cpc	r25, r1
     c8e:	09 f4       	brne	.+2      	; 0xc92 <Disp_printState+0x40>
     c90:	16 c1       	rjmp	.+556    	; 0xebe <Disp_printState+0x26c>
     c92:	0a 97       	sbiw	r24, 0x0a	; 10
     c94:	09 f0       	breq	.+2      	; 0xc98 <Disp_printState+0x46>
     c96:	35 c1       	rjmp	.+618    	; 0xf02 <Disp_printState+0x2b0>
     c98:	3e c0       	rjmp	.+124    	; 0xd16 <Disp_printState+0xc4>
     c9a:	8d 30       	cpi	r24, 0x0D	; 13
     c9c:	91 05       	cpc	r25, r1
     c9e:	09 f4       	brne	.+2      	; 0xca2 <Disp_printState+0x50>
     ca0:	dd c0       	rjmp	.+442    	; 0xe5c <Disp_printState+0x20a>
     ca2:	0c f4       	brge	.+2      	; 0xca6 <Disp_printState+0x54>
     ca4:	8e c0       	rjmp	.+284    	; 0xdc2 <Disp_printState+0x170>
     ca6:	0e 97       	sbiw	r24, 0x0e	; 14
     ca8:	09 f0       	breq	.+2      	; 0xcac <Disp_printState+0x5a>
     caa:	2b c1       	rjmp	.+598    	; 0xf02 <Disp_printState+0x2b0>
     cac:	15 c1       	rjmp	.+554    	; 0xed8 <Disp_printState+0x286>
	{
		case stateIdle :
		{
			Disp_clear();
     cae:	0e 94 25 06 	call	0xc4a	; 0xc4a <Disp_clear>
			Disp_GotoXY(1,1);
     cb2:	61 e0       	ldi	r22, 0x01	; 1
     cb4:	70 e0       	ldi	r23, 0x00	; 0
     cb6:	81 e0       	ldi	r24, 0x01	; 1
     cb8:	90 e0       	ldi	r25, 0x00	; 0
     cba:	0e 94 cc 05 	call	0xb98	; 0xb98 <Disp_GotoXY>
			Disp_printString("Welcome");
     cbe:	8c e2       	ldi	r24, 0x2C	; 44
     cc0:	93 e0       	ldi	r25, 0x03	; 3
     cc2:	0e 94 16 06 	call	0xc2c	; 0xc2c <Disp_printString>
			Disp_GotoXY(1,2);
     cc6:	62 e0       	ldi	r22, 0x02	; 2
     cc8:	70 e0       	ldi	r23, 0x00	; 0
     cca:	81 e0       	ldi	r24, 0x01	; 1
     ccc:	90 e0       	ldi	r25, 0x00	; 0
     cce:	0e 94 cc 05 	call	0xb98	; 0xb98 <Disp_GotoXY>
			Disp_printString("Swipe Card");
     cd2:	84 e3       	ldi	r24, 0x34	; 52
     cd4:	93 e0       	ldi	r25, 0x03	; 3
     cd6:	0e 94 16 06 	call	0xc2c	; 0xc2c <Disp_printString>
		}
		break;
     cda:	08 95       	ret
		case stateTypePassword :
		{
			Disp_clear();
     cdc:	0e 94 25 06 	call	0xc4a	; 0xc4a <Disp_clear>
			Disp_GotoXY(1,1);
     ce0:	61 e0       	ldi	r22, 0x01	; 1
     ce2:	70 e0       	ldi	r23, 0x00	; 0
     ce4:	81 e0       	ldi	r24, 0x01	; 1
     ce6:	90 e0       	ldi	r25, 0x00	; 0
     ce8:	0e 94 cc 05 	call	0xb98	; 0xb98 <Disp_GotoXY>
			Disp_printString("Type Password");
     cec:	8f e3       	ldi	r24, 0x3F	; 63
     cee:	93 e0       	ldi	r25, 0x03	; 3
     cf0:	0e 94 16 06 	call	0xc2c	; 0xc2c <Disp_printString>
			Disp_GotoXY(7,2);
     cf4:	62 e0       	ldi	r22, 0x02	; 2
     cf6:	70 e0       	ldi	r23, 0x00	; 0
     cf8:	87 e0       	ldi	r24, 0x07	; 7
     cfa:	90 e0       	ldi	r25, 0x00	; 0
     cfc:	0e 94 cc 05 	call	0xb98	; 0xb98 <Disp_GotoXY>
			Disp_printString("C = cancel");
     d00:	8d e4       	ldi	r24, 0x4D	; 77
     d02:	93 e0       	ldi	r25, 0x03	; 3
     d04:	0e 94 16 06 	call	0xc2c	; 0xc2c <Disp_printString>
			Disp_GotoXY(1,2);
     d08:	62 e0       	ldi	r22, 0x02	; 2
     d0a:	70 e0       	ldi	r23, 0x00	; 0
     d0c:	81 e0       	ldi	r24, 0x01	; 1
     d0e:	90 e0       	ldi	r25, 0x00	; 0
     d10:	0e 94 cc 05 	call	0xb98	; 0xb98 <Disp_GotoXY>
		}
		break;
     d14:	08 95       	ret
		case stateUnknownCard :
		{
			Disp_clear();
     d16:	0e 94 25 06 	call	0xc4a	; 0xc4a <Disp_clear>
			Disp_GotoXY(1,1);
     d1a:	61 e0       	ldi	r22, 0x01	; 1
     d1c:	70 e0       	ldi	r23, 0x00	; 0
     d1e:	81 e0       	ldi	r24, 0x01	; 1
     d20:	90 e0       	ldi	r25, 0x00	; 0
     d22:	0e 94 cc 05 	call	0xb98	; 0xb98 <Disp_GotoXY>
			Disp_printString("card unknown");
     d26:	88 e5       	ldi	r24, 0x58	; 88
     d28:	93 e0       	ldi	r25, 0x03	; 3
     d2a:	0e 94 16 06 	call	0xc2c	; 0xc2c <Disp_printString>
	#else
		//round up by default
		__ticks_dc = (uint32_t)(ceil(fabs(__tmp)));
	#endif

	__builtin_avr_delay_cycles(__ticks_dc);
     d2e:	2f ef       	ldi	r18, 0xFF	; 255
     d30:	87 ea       	ldi	r24, 0xA7	; 167
     d32:	91 e6       	ldi	r25, 0x61	; 97
     d34:	21 50       	subi	r18, 0x01	; 1
     d36:	80 40       	sbci	r24, 0x00	; 0
     d38:	90 40       	sbci	r25, 0x00	; 0
     d3a:	e1 f7       	brne	.-8      	; 0xd34 <Disp_printState+0xe2>
     d3c:	00 c0       	rjmp	.+0      	; 0xd3e <Disp_printState+0xec>
     d3e:	00 00       	nop
     d40:	08 95       	ret
			_delay_ms(2000);
		}
		break;
		case stateWrongPassword :
		{
			Disp_clear();
     d42:	0e 94 25 06 	call	0xc4a	; 0xc4a <Disp_clear>
			Disp_GotoXY(1,1);
     d46:	61 e0       	ldi	r22, 0x01	; 1
     d48:	70 e0       	ldi	r23, 0x00	; 0
     d4a:	81 e0       	ldi	r24, 0x01	; 1
     d4c:	90 e0       	ldi	r25, 0x00	; 0
     d4e:	0e 94 cc 05 	call	0xb98	; 0xb98 <Disp_GotoXY>
			Disp_printString("wrong password");
     d52:	85 e6       	ldi	r24, 0x65	; 101
     d54:	93 e0       	ldi	r25, 0x03	; 3
     d56:	0e 94 16 06 	call	0xc2c	; 0xc2c <Disp_printString>
			Disp_GotoXY(1,2);
     d5a:	62 e0       	ldi	r22, 0x02	; 2
     d5c:	70 e0       	ldi	r23, 0x00	; 0
     d5e:	81 e0       	ldi	r24, 0x01	; 1
     d60:	90 e0       	ldi	r25, 0x00	; 0
     d62:	0e 94 cc 05 	call	0xb98	; 0xb98 <Disp_GotoXY>
			Disp_printString("try again");
     d66:	84 e7       	ldi	r24, 0x74	; 116
     d68:	93 e0       	ldi	r25, 0x03	; 3
     d6a:	0e 94 16 06 	call	0xc2c	; 0xc2c <Disp_printString>
     d6e:	2f ef       	ldi	r18, 0xFF	; 255
     d70:	87 ea       	ldi	r24, 0xA7	; 167
     d72:	91 e6       	ldi	r25, 0x61	; 97
     d74:	21 50       	subi	r18, 0x01	; 1
     d76:	80 40       	sbci	r24, 0x00	; 0
     d78:	90 40       	sbci	r25, 0x00	; 0
     d7a:	e1 f7       	brne	.-8      	; 0xd74 <Disp_printState+0x122>
     d7c:	00 c0       	rjmp	.+0      	; 0xd7e <Disp_printState+0x12c>
     d7e:	00 00       	nop
     d80:	08 95       	ret
			_delay_ms(2000);
		}
		break;
		case stateDisableCard :
		{
			Disp_clear();
     d82:	0e 94 25 06 	call	0xc4a	; 0xc4a <Disp_clear>
			Disp_GotoXY(1,1);
     d86:	61 e0       	ldi	r22, 0x01	; 1
     d88:	70 e0       	ldi	r23, 0x00	; 0
     d8a:	81 e0       	ldi	r24, 0x01	; 1
     d8c:	90 e0       	ldi	r25, 0x00	; 0
     d8e:	0e 94 cc 05 	call	0xb98	; 0xb98 <Disp_GotoXY>
			Disp_printString("card blocked");
     d92:	8e e7       	ldi	r24, 0x7E	; 126
     d94:	93 e0       	ldi	r25, 0x03	; 3
     d96:	0e 94 16 06 	call	0xc2c	; 0xc2c <Disp_printString>
			Disp_GotoXY(1,2);
     d9a:	62 e0       	ldi	r22, 0x02	; 2
     d9c:	70 e0       	ldi	r23, 0x00	; 0
     d9e:	81 e0       	ldi	r24, 0x01	; 1
     da0:	90 e0       	ldi	r25, 0x00	; 0
     da2:	0e 94 cc 05 	call	0xb98	; 0xb98 <Disp_GotoXY>
			Disp_printString("contact service");
     da6:	8b e8       	ldi	r24, 0x8B	; 139
     da8:	93 e0       	ldi	r25, 0x03	; 3
     daa:	0e 94 16 06 	call	0xc2c	; 0xc2c <Disp_printString>
     dae:	2f ef       	ldi	r18, 0xFF	; 255
     db0:	87 ea       	ldi	r24, 0xA7	; 167
     db2:	91 e6       	ldi	r25, 0x61	; 97
     db4:	21 50       	subi	r18, 0x01	; 1
     db6:	80 40       	sbci	r24, 0x00	; 0
     db8:	90 40       	sbci	r25, 0x00	; 0
     dba:	e1 f7       	brne	.-8      	; 0xdb4 <Disp_printState+0x162>
     dbc:	00 c0       	rjmp	.+0      	; 0xdbe <Disp_printState+0x16c>
     dbe:	00 00       	nop
     dc0:	08 95       	ret
			_delay_ms(2000);
		}
		break;
		case stateCardReadError :
		{
			Disp_clear();
     dc2:	0e 94 25 06 	call	0xc4a	; 0xc4a <Disp_clear>
			Disp_GotoXY(1,1);
     dc6:	61 e0       	ldi	r22, 0x01	; 1
     dc8:	70 e0       	ldi	r23, 0x00	; 0
     dca:	81 e0       	ldi	r24, 0x01	; 1
     dcc:	90 e0       	ldi	r25, 0x00	; 0
     dce:	0e 94 cc 05 	call	0xb98	; 0xb98 <Disp_GotoXY>
			Disp_printString("card read error");
     dd2:	8b e9       	ldi	r24, 0x9B	; 155
     dd4:	93 e0       	ldi	r25, 0x03	; 3
     dd6:	0e 94 16 06 	call	0xc2c	; 0xc2c <Disp_printString>
			Disp_GotoXY(1,2);
     dda:	62 e0       	ldi	r22, 0x02	; 2
     ddc:	70 e0       	ldi	r23, 0x00	; 0
     dde:	81 e0       	ldi	r24, 0x01	; 1
     de0:	90 e0       	ldi	r25, 0x00	; 0
     de2:	0e 94 cc 05 	call	0xb98	; 0xb98 <Disp_GotoXY>
			Disp_printString("swipe again");
     de6:	8b ea       	ldi	r24, 0xAB	; 171
     de8:	93 e0       	ldi	r25, 0x03	; 3
     dea:	0e 94 16 06 	call	0xc2c	; 0xc2c <Disp_printString>
     dee:	2f ef       	ldi	r18, 0xFF	; 255
     df0:	87 ea       	ldi	r24, 0xA7	; 167
     df2:	91 e6       	ldi	r25, 0x61	; 97
     df4:	21 50       	subi	r18, 0x01	; 1
     df6:	80 40       	sbci	r24, 0x00	; 0
     df8:	90 40       	sbci	r25, 0x00	; 0
     dfa:	e1 f7       	brne	.-8      	; 0xdf4 <Disp_printState+0x1a2>
     dfc:	00 c0       	rjmp	.+0      	; 0xdfe <Disp_printState+0x1ac>
     dfe:	00 00       	nop
     e00:	08 95       	ret
			_delay_ms(2000);
		}
		break;
		case stateCharging:
		{
			Disp_clear();
     e02:	0e 94 25 06 	call	0xc4a	; 0xc4a <Disp_clear>
			Disp_GotoXY(1,1);
     e06:	61 e0       	ldi	r22, 0x01	; 1
     e08:	70 e0       	ldi	r23, 0x00	; 0
     e0a:	81 e0       	ldi	r24, 0x01	; 1
     e0c:	90 e0       	ldi	r25, 0x00	; 0
     e0e:	0e 94 cc 05 	call	0xb98	; 0xb98 <Disp_GotoXY>
			Disp_printString("P:     mW A:");
     e12:	87 eb       	ldi	r24, 0xB7	; 183
     e14:	93 e0       	ldi	r25, 0x03	; 3
     e16:	0e 94 16 06 	call	0xc2c	; 0xc2c <Disp_printString>
			Disp_GotoXY(1,2);
     e1a:	62 e0       	ldi	r22, 0x02	; 2
     e1c:	70 e0       	ldi	r23, 0x00	; 0
     e1e:	81 e0       	ldi	r24, 0x01	; 1
     e20:	90 e0       	ldi	r25, 0x00	; 0
     e22:	0e 94 cc 05 	call	0xb98	; 0xb98 <Disp_GotoXY>
			Disp_printString("E:     mWS    kr");
     e26:	84 ec       	ldi	r24, 0xC4	; 196
     e28:	93 e0       	ldi	r25, 0x03	; 3
     e2a:	0e 94 16 06 	call	0xc2c	; 0xc2c <Disp_printString>
		}
		break;
     e2e:	08 95       	ret
		case stateChargingStopped:
		{
			Disp_clear();
     e30:	0e 94 25 06 	call	0xc4a	; 0xc4a <Disp_clear>
			Disp_GotoXY(1,1);
     e34:	61 e0       	ldi	r22, 0x01	; 1
     e36:	70 e0       	ldi	r23, 0x00	; 0
     e38:	81 e0       	ldi	r24, 0x01	; 1
     e3a:	90 e0       	ldi	r25, 0x00	; 0
     e3c:	0e 94 cc 05 	call	0xb98	; 0xb98 <Disp_GotoXY>
			Disp_printString("Charging stopped");
     e40:	85 ed       	ldi	r24, 0xD5	; 213
     e42:	93 e0       	ldi	r25, 0x03	; 3
     e44:	0e 94 16 06 	call	0xc2c	; 0xc2c <Disp_printString>
     e48:	2f ef       	ldi	r18, 0xFF	; 255
     e4a:	87 ea       	ldi	r24, 0xA7	; 167
     e4c:	91 e6       	ldi	r25, 0x61	; 97
     e4e:	21 50       	subi	r18, 0x01	; 1
     e50:	80 40       	sbci	r24, 0x00	; 0
     e52:	90 40       	sbci	r25, 0x00	; 0
     e54:	e1 f7       	brne	.-8      	; 0xe4e <Disp_printState+0x1fc>
     e56:	00 c0       	rjmp	.+0      	; 0xe58 <Disp_printState+0x206>
     e58:	00 00       	nop
     e5a:	08 95       	ret
			_delay_ms(2000);
		}
		break;
		case stateConnectCar:
		{
			Disp_clear();
     e5c:	0e 94 25 06 	call	0xc4a	; 0xc4a <Disp_clear>
			Disp_GotoXY(1,1);
     e60:	61 e0       	ldi	r22, 0x01	; 1
     e62:	70 e0       	ldi	r23, 0x00	; 0
     e64:	81 e0       	ldi	r24, 0x01	; 1
     e66:	90 e0       	ldi	r25, 0x00	; 0
     e68:	0e 94 cc 05 	call	0xb98	; 0xb98 <Disp_GotoXY>
			Disp_printString("Connect Car");
     e6c:	86 ee       	ldi	r24, 0xE6	; 230
     e6e:	93 e0       	ldi	r25, 0x03	; 3
     e70:	0e 94 16 06 	call	0xc2c	; 0xc2c <Disp_printString>
			Disp_GotoXY(1,2);
     e74:	62 e0       	ldi	r22, 0x02	; 2
     e76:	70 e0       	ldi	r23, 0x00	; 0
     e78:	81 e0       	ldi	r24, 0x01	; 1
     e7a:	90 e0       	ldi	r25, 0x00	; 0
     e7c:	0e 94 cc 05 	call	0xb98	; 0xb98 <Disp_GotoXY>
			Disp_printString("to continue");
     e80:	82 ef       	ldi	r24, 0xF2	; 242
     e82:	93 e0       	ldi	r25, 0x03	; 3
     e84:	0e 94 16 06 	call	0xc2c	; 0xc2c <Disp_printString>
		}
		break;
     e88:	08 95       	ret
		case stateDisconnectCar:
		{
			Disp_clear();
     e8a:	0e 94 25 06 	call	0xc4a	; 0xc4a <Disp_clear>
			Disp_GotoXY(1,1);
     e8e:	61 e0       	ldi	r22, 0x01	; 1
     e90:	70 e0       	ldi	r23, 0x00	; 0
     e92:	81 e0       	ldi	r24, 0x01	; 1
     e94:	90 e0       	ldi	r25, 0x00	; 0
     e96:	0e 94 cc 05 	call	0xb98	; 0xb98 <Disp_GotoXY>
			Disp_printString("Disconnect Car");
     e9a:	8e ef       	ldi	r24, 0xFE	; 254
     e9c:	93 e0       	ldi	r25, 0x03	; 3
     e9e:	0e 94 16 06 	call	0xc2c	; 0xc2c <Disp_printString>
		}
		break;
     ea2:	08 95       	ret
		case stateUploadToDB:
		{
			Disp_clear();
     ea4:	0e 94 25 06 	call	0xc4a	; 0xc4a <Disp_clear>
			Disp_GotoXY(1,1);
     ea8:	61 e0       	ldi	r22, 0x01	; 1
     eaa:	70 e0       	ldi	r23, 0x00	; 0
     eac:	81 e0       	ldi	r24, 0x01	; 1
     eae:	90 e0       	ldi	r25, 0x00	; 0
     eb0:	0e 94 cc 05 	call	0xb98	; 0xb98 <Disp_GotoXY>
			Disp_printString("Uploading data");
     eb4:	8d e0       	ldi	r24, 0x0D	; 13
     eb6:	94 e0       	ldi	r25, 0x04	; 4
     eb8:	0e 94 16 06 	call	0xc2c	; 0xc2c <Disp_printString>
		}
		break;
     ebc:	08 95       	ret
		case stateDBoffline :
		{
			Disp_clear();
     ebe:	0e 94 25 06 	call	0xc4a	; 0xc4a <Disp_clear>
			Disp_GotoXY(1,1);
     ec2:	61 e0       	ldi	r22, 0x01	; 1
     ec4:	70 e0       	ldi	r23, 0x00	; 0
     ec6:	81 e0       	ldi	r24, 0x01	; 1
     ec8:	90 e0       	ldi	r25, 0x00	; 0
     eca:	0e 94 cc 05 	call	0xb98	; 0xb98 <Disp_GotoXY>
			Disp_printString("Charger Offline");
     ece:	8c e1       	ldi	r24, 0x1C	; 28
     ed0:	94 e0       	ldi	r25, 0x04	; 4
     ed2:	0e 94 16 06 	call	0xc2c	; 0xc2c <Disp_printString>
		}
		break;
     ed6:	08 95       	ret
		case stateErrorState :
		{
			Disp_clear();
     ed8:	0e 94 25 06 	call	0xc4a	; 0xc4a <Disp_clear>
			Disp_GotoXY(1,1);
     edc:	61 e0       	ldi	r22, 0x01	; 1
     ede:	70 e0       	ldi	r23, 0x00	; 0
     ee0:	81 e0       	ldi	r24, 0x01	; 1
     ee2:	90 e0       	ldi	r25, 0x00	; 0
     ee4:	0e 94 cc 05 	call	0xb98	; 0xb98 <Disp_GotoXY>
			Disp_printString("Error State");
     ee8:	8c e2       	ldi	r24, 0x2C	; 44
     eea:	94 e0       	ldi	r25, 0x04	; 4
     eec:	0e 94 16 06 	call	0xc2c	; 0xc2c <Disp_printString>
     ef0:	2f ef       	ldi	r18, 0xFF	; 255
     ef2:	87 ea       	ldi	r24, 0xA7	; 167
     ef4:	91 e6       	ldi	r25, 0x61	; 97
     ef6:	21 50       	subi	r18, 0x01	; 1
     ef8:	80 40       	sbci	r24, 0x00	; 0
     efa:	90 40       	sbci	r25, 0x00	; 0
     efc:	e1 f7       	brne	.-8      	; 0xef6 <Disp_printState+0x2a4>
     efe:	00 c0       	rjmp	.+0      	; 0xf00 <Disp_printState+0x2ae>
     f00:	00 00       	nop
     f02:	08 95       	ret

00000f04 <KeyTranslate>:
#include "Macroes.h"

char KeyTranslate (uint8_t keyData)
{
	char kbdChar = 0;
	switch  (keyData)
     f04:	8e 3c       	cpi	r24, 0xCE	; 206
     f06:	09 f4       	brne	.+2      	; 0xf0a <KeyTranslate+0x6>
     f08:	63 c0       	rjmp	.+198    	; 0xfd0 <KeyTranslate+0xcc>
     f0a:	08 f5       	brcc	.+66     	; 0xf4e <KeyTranslate+0x4a>
     f0c:	8d 37       	cpi	r24, 0x7D	; 125
     f0e:	09 f4       	brne	.+2      	; 0xf12 <KeyTranslate+0xe>
     f10:	43 c0       	rjmp	.+134    	; 0xf98 <KeyTranslate+0x94>
     f12:	70 f4       	brcc	.+28     	; 0xf30 <KeyTranslate+0x2c>
     f14:	8f 30       	cpi	r24, 0x0F	; 15
     f16:	09 f4       	brne	.+2      	; 0xf1a <KeyTranslate+0x16>
     f18:	57 c0       	rjmp	.+174    	; 0xfc8 <KeyTranslate+0xc4>
     f1a:	20 f4       	brcc	.+8      	; 0xf24 <KeyTranslate+0x20>
     f1c:	88 23       	and	r24, r24
     f1e:	09 f4       	brne	.+2      	; 0xf22 <KeyTranslate+0x1e>
     f20:	4f c0       	rjmp	.+158    	; 0xfc0 <KeyTranslate+0xbc>
     f22:	5a c0       	rjmp	.+180    	; 0xfd8 <KeyTranslate+0xd4>
     f24:	87 37       	cpi	r24, 0x77	; 119
     f26:	71 f1       	breq	.+92     	; 0xf84 <KeyTranslate+0x80>
     f28:	8b 37       	cpi	r24, 0x7B	; 123
     f2a:	09 f0       	breq	.+2      	; 0xf2e <KeyTranslate+0x2a>
     f2c:	55 c0       	rjmp	.+170    	; 0xfd8 <KeyTranslate+0xd4>
     f2e:	2e c0       	rjmp	.+92     	; 0xf8c <KeyTranslate+0x88>
     f30:	8b 3b       	cpi	r24, 0xBB	; 187
     f32:	71 f1       	breq	.+92     	; 0xf90 <KeyTranslate+0x8c>
     f34:	30 f4       	brcc	.+12     	; 0xf42 <KeyTranslate+0x3e>
     f36:	8e 37       	cpi	r24, 0x7E	; 126
     f38:	b9 f1       	breq	.+110    	; 0xfa8 <KeyTranslate+0xa4>
     f3a:	87 3b       	cpi	r24, 0xB7	; 183
     f3c:	09 f0       	breq	.+2      	; 0xf40 <KeyTranslate+0x3c>
     f3e:	4c c0       	rjmp	.+152    	; 0xfd8 <KeyTranslate+0xd4>
     f40:	4d c0       	rjmp	.+154    	; 0xfdc <KeyTranslate+0xd8>
     f42:	8d 3b       	cpi	r24, 0xBD	; 189
     f44:	59 f1       	breq	.+86     	; 0xf9c <KeyTranslate+0x98>
     f46:	8e 3b       	cpi	r24, 0xBE	; 190
     f48:	09 f0       	breq	.+2      	; 0xf4c <KeyTranslate+0x48>
     f4a:	46 c0       	rjmp	.+140    	; 0xfd8 <KeyTranslate+0xd4>
     f4c:	2b c0       	rjmp	.+86     	; 0xfa4 <KeyTranslate+0xa0>
     f4e:	87 3e       	cpi	r24, 0xE7	; 231
     f50:	a9 f1       	breq	.+106    	; 0xfbc <KeyTranslate+0xb8>
     f52:	58 f4       	brcc	.+22     	; 0xf6a <KeyTranslate+0x66>
     f54:	8b 3d       	cpi	r24, 0xDB	; 219
     f56:	f1 f0       	breq	.+60     	; 0xf94 <KeyTranslate+0x90>
     f58:	18 f4       	brcc	.+6      	; 0xf60 <KeyTranslate+0x5c>
     f5a:	87 3d       	cpi	r24, 0xD7	; 215
     f5c:	e9 f5       	brne	.+122    	; 0xfd8 <KeyTranslate+0xd4>
     f5e:	14 c0       	rjmp	.+40     	; 0xf88 <KeyTranslate+0x84>
     f60:	8d 3d       	cpi	r24, 0xDD	; 221
     f62:	f1 f0       	breq	.+60     	; 0xfa0 <KeyTranslate+0x9c>
     f64:	8e 3d       	cpi	r24, 0xDE	; 222
     f66:	c1 f5       	brne	.+112    	; 0xfd8 <KeyTranslate+0xd4>
     f68:	21 c0       	rjmp	.+66     	; 0xfac <KeyTranslate+0xa8>
     f6a:	8e 3e       	cpi	r24, 0xEE	; 238
     f6c:	09 f1       	breq	.+66     	; 0xfb0 <KeyTranslate+0xac>
     f6e:	28 f4       	brcc	.+10     	; 0xf7a <KeyTranslate+0x76>
     f70:	8b 3e       	cpi	r24, 0xEB	; 235
     f72:	11 f1       	breq	.+68     	; 0xfb8 <KeyTranslate+0xb4>
     f74:	8d 3e       	cpi	r24, 0xED	; 237
     f76:	81 f5       	brne	.+96     	; 0xfd8 <KeyTranslate+0xd4>
     f78:	1d c0       	rjmp	.+58     	; 0xfb4 <KeyTranslate+0xb0>
     f7a:	80 3f       	cpi	r24, 0xF0	; 240
     f7c:	39 f1       	breq	.+78     	; 0xfcc <KeyTranslate+0xc8>
     f7e:	8f 3f       	cpi	r24, 0xFF	; 255
     f80:	59 f5       	brne	.+86     	; 0xfd8 <KeyTranslate+0xd4>
     f82:	20 c0       	rjmp	.+64     	; 0xfc4 <KeyTranslate+0xc0>
	{
		case 0b01110111: kbdChar='1'; break;
     f84:	81 e3       	ldi	r24, 0x31	; 49
     f86:	08 95       	ret
		case 0b10110111: kbdChar='2'; break;
		case 0b11010111: kbdChar='3'; break;
     f88:	83 e3       	ldi	r24, 0x33	; 51
     f8a:	08 95       	ret
		case 0b01111011: kbdChar='4'; break;
     f8c:	84 e3       	ldi	r24, 0x34	; 52
     f8e:	08 95       	ret
		case 0b10111011: kbdChar='5'; break;
     f90:	85 e3       	ldi	r24, 0x35	; 53
     f92:	08 95       	ret
		case 0b11011011: kbdChar='6'; break;
     f94:	86 e3       	ldi	r24, 0x36	; 54
     f96:	08 95       	ret
		case 0b01111101: kbdChar='7'; break;
     f98:	87 e3       	ldi	r24, 0x37	; 55
     f9a:	08 95       	ret
		case 0b10111101: kbdChar='8'; break;
     f9c:	88 e3       	ldi	r24, 0x38	; 56
     f9e:	08 95       	ret
		case 0b11011101: kbdChar='9'; break;
     fa0:	89 e3       	ldi	r24, 0x39	; 57
     fa2:	08 95       	ret
		case 0b10111110: kbdChar='0'; break;
     fa4:	80 e3       	ldi	r24, 0x30	; 48
     fa6:	08 95       	ret
		case 0b01111110: kbdChar='A'; break;
     fa8:	81 e4       	ldi	r24, 0x41	; 65
     faa:	08 95       	ret
		case 0b11011110: kbdChar='B'; break;
     fac:	82 e4       	ldi	r24, 0x42	; 66
     fae:	08 95       	ret
		case 0b11101110: kbdChar='C'; break;
     fb0:	83 e4       	ldi	r24, 0x43	; 67
     fb2:	08 95       	ret
		case 0b11101101: kbdChar='D'; break;
     fb4:	84 e4       	ldi	r24, 0x44	; 68
     fb6:	08 95       	ret
		case 0b11101011: kbdChar='E'; break;
     fb8:	85 e4       	ldi	r24, 0x45	; 69
     fba:	08 95       	ret
		case 0b11100111: kbdChar='F'; break;
     fbc:	86 e4       	ldi	r24, 0x46	; 70
     fbe:	08 95       	ret
		case 0b00000000: kbdChar='L'; break;
     fc0:	8c e4       	ldi	r24, 0x4C	; 76
     fc2:	08 95       	ret
		case 0b11111111: kbdChar='H'; break;
     fc4:	88 e4       	ldi	r24, 0x48	; 72
     fc6:	08 95       	ret
		case 0b00001111: kbdChar='Q'; break;
     fc8:	81 e5       	ldi	r24, 0x51	; 81
     fca:	08 95       	ret
		case 0b11110000: kbdChar='P'; break;
     fcc:	80 e5       	ldi	r24, 0x50	; 80
     fce:	08 95       	ret
		case 0b11001110: Disp_clear(); break;
     fd0:	0e 94 25 06 	call	0xc4a	; 0xc4a <Disp_clear>
#include <avr/io.h>
#include "Macroes.h"

char KeyTranslate (uint8_t keyData)
{
	char kbdChar = 0;
     fd4:	80 e0       	ldi	r24, 0x00	; 0
		case 0b11100111: kbdChar='F'; break;
		case 0b00000000: kbdChar='L'; break;
		case 0b11111111: kbdChar='H'; break;
		case 0b00001111: kbdChar='Q'; break;
		case 0b11110000: kbdChar='P'; break;
		case 0b11001110: Disp_clear(); break;
     fd6:	08 95       	ret
		default:		 kbdChar='X'; break;
     fd8:	88 e5       	ldi	r24, 0x58	; 88
     fda:	08 95       	ret
{
	char kbdChar = 0;
	switch  (keyData)
	{
		case 0b01110111: kbdChar='1'; break;
		case 0b10110111: kbdChar='2'; break;
     fdc:	82 e3       	ldi	r24, 0x32	; 50
		case 0b11110000: kbdChar='P'; break;
		case 0b11001110: Disp_clear(); break;
		default:		 kbdChar='X'; break;
	}
	return kbdChar;
}
     fde:	08 95       	ret

00000fe0 <DebounceKBD>:
uint8_t static lastKey = 0;
uint8_t static dbCount = 0;
uint8_t static dbLimit = 5;	//Debounce "depth"
bool debounced = false;

	if (keyData == lastKey)
     fe0:	90 91 36 06 	lds	r25, 0x0636
     fe4:	89 13       	cpse	r24, r25
     fe6:	0d c0       	rjmp	.+26     	; 0x1002 <DebounceKBD+0x22>
	{
		if (dbCount==dbLimit)
     fe8:	80 91 37 06 	lds	r24, 0x0637
     fec:	85 30       	cpi	r24, 0x05	; 5
     fee:	21 f4       	brne	.+8      	; 0xff8 <DebounceKBD+0x18>
		{
			dbCount=0;
     ff0:	10 92 37 06 	sts	0x0637, r1
			return debounced = true;
     ff4:	81 e0       	ldi	r24, 0x01	; 1
     ff6:	08 95       	ret
		}
		else
		{
			dbCount++;
     ff8:	8f 5f       	subi	r24, 0xFF	; 255
     ffa:	80 93 37 06 	sts	0x0637, r24
			return debounced = false;
     ffe:	80 e0       	ldi	r24, 0x00	; 0
    1000:	08 95       	ret
		}
	}
	else
	{
		lastKey = keyData;
    1002:	80 93 36 06 	sts	0x0636, r24
		dbCount=0;
    1006:	10 92 37 06 	sts	0x0637, r1
		return debounced = false;
    100a:	80 e0       	ldi	r24, 0x00	; 0
	}
	return debounced;
}
    100c:	08 95       	ret

0000100e <KBDchar>:

char KBDchar (uint8_t charReturn)
{
    100e:	1f 93       	push	r17
    1010:	cf 93       	push	r28
    1012:	df 93       	push	r29
    1014:	18 2f       	mov	r17, r24
	uint8_t keyData;
	static char keyPrevious = 0, keyPressed = 0;

	DDRC  |= (1<<PORTC0)|(1<<PORTC1)|(1<<PORTC2)|(1<<PORTC3);//C udgang
    1016:	97 b1       	in	r25, 0x07	; 7
    1018:	9f 60       	ori	r25, 0x0F	; 15
    101a:	97 b9       	out	0x07, r25	; 7
	PORTC &= (0<<PORTC0)&(0<<PORTC1)&(0<<PORTC2)&(0<<PORTC3);//C lav
    101c:	88 b1       	in	r24, 0x08	; 8
    101e:	18 b8       	out	0x08, r1	; 8
	DDRD  &= (0<<PORTD4)&(0<<PORTD5)&(0<<PORTD6)&(0<<PORTD7);//D indgang
    1020:	8a b1       	in	r24, 0x0a	; 10
    1022:	1a b8       	out	0x0a, r1	; 10
	PORTD |= (1<<PORTD4)|(1<<PORTD5)|(1<<PORTD6)|(1<<PORTD7);//D pullup
    1024:	9b b1       	in	r25, 0x0b	; 11
    1026:	90 6f       	ori	r25, 0xF0	; 240
    1028:	9b b9       	out	0x0b, r25	; 11
	#else
		//round up by default
		__ticks_dc = (uint32_t)(ceil(fabs(__tmp)));
	#endif

	__builtin_avr_delay_cycles(__ticks_dc);
    102a:	87 ec       	ldi	r24, 0xC7	; 199
    102c:	90 e0       	ldi	r25, 0x00	; 0
    102e:	01 97       	sbiw	r24, 0x01	; 1
    1030:	f1 f7       	brne	.-4      	; 0x102e <KBDchar+0x20>
    1032:	00 c0       	rjmp	.+0      	; 0x1034 <KBDchar+0x26>
    1034:	00 00       	nop
	_delay_us(50);
	keyData = PIND & 0b11110000; // Coloum
    1036:	c9 b1       	in	r28, 0x09	; 9
    1038:	c0 7f       	andi	r28, 0xF0	; 240
	
	DDRC  &= (0<<PORTC0)&(0<<PORTC1)&(0<<PORTC2)&(0<<PORTC3);//C indgang
    103a:	87 b1       	in	r24, 0x07	; 7
    103c:	17 b8       	out	0x07, r1	; 7
	PORTC |= (1<<PORTC0)|(1<<PORTC1)|(1<<PORTC2)|(1<<PORTC3);//C pullup
    103e:	98 b1       	in	r25, 0x08	; 8
    1040:	9f 60       	ori	r25, 0x0F	; 15
    1042:	98 b9       	out	0x08, r25	; 8
	DDRD  |= (1<<PORTD4)|(1<<PORTD5)|(1<<PORTD6)|(1<<PORTD7);//D udgang
    1044:	9a b1       	in	r25, 0x0a	; 10
    1046:	90 6f       	ori	r25, 0xF0	; 240
    1048:	9a b9       	out	0x0a, r25	; 10
	PORTD &= (0<<PORTD4)&(0<<PORTD5)&(0<<PORTD6)&(0<<PORTD7);//D lav
    104a:	8b b1       	in	r24, 0x0b	; 11
    104c:	1b b8       	out	0x0b, r1	; 11
    104e:	87 ec       	ldi	r24, 0xC7	; 199
    1050:	90 e0       	ldi	r25, 0x00	; 0
    1052:	01 97       	sbiw	r24, 0x01	; 1
    1054:	f1 f7       	brne	.-4      	; 0x1052 <KBDchar+0x44>
    1056:	00 c0       	rjmp	.+0      	; 0x1058 <KBDchar+0x4a>
    1058:	00 00       	nop
	_delay_us(50);
	keyData |= (PINC & 0b00001111); // Row
    105a:	96 b1       	in	r25, 0x06	; 6
    105c:	9f 70       	andi	r25, 0x0F	; 15
    105e:	c9 2b       	or	r28, r25
	if (keyData != 0xFF)
    1060:	cf 3f       	cpi	r28, 0xFF	; 255
    1062:	a9 f0       	breq	.+42     	; 0x108e <KBDchar+0x80>
	{
		keyPressed = KeyTranslate(keyData);
    1064:	8c 2f       	mov	r24, r28
    1066:	0e 94 82 07 	call	0xf04	; 0xf04 <KeyTranslate>
    106a:	d8 2f       	mov	r29, r24
    106c:	80 93 38 06 	sts	0x0638, r24
		if ((keyPressed != keyPrevious) && DebounceKBD(keyData))
    1070:	80 91 39 06 	lds	r24, 0x0639
    1074:	d8 17       	cp	r29, r24
    1076:	79 f0       	breq	.+30     	; 0x1096 <KBDchar+0x88>
    1078:	8c 2f       	mov	r24, r28
    107a:	0e 94 f0 07 	call	0xfe0	; 0xfe0 <DebounceKBD>
    107e:	88 23       	and	r24, r24
    1080:	61 f0       	breq	.+24     	; 0x109a <KBDchar+0x8c>
		{
			keyPrevious = keyPressed;
    1082:	d0 93 39 06 	sts	0x0639, r29
			if (charReturn != 0)
    1086:	11 23       	and	r17, r17
    1088:	49 f0       	breq	.+18     	; 0x109c <KBDchar+0x8e>
			{
				return keyPressed;
    108a:	cd 2f       	mov	r28, r29
    108c:	07 c0       	rjmp	.+14     	; 0x109c <KBDchar+0x8e>
		else
		{
			return 0;
		}		
	}
	keyPrevious = 0;
    108e:	10 92 39 06 	sts	0x0639, r1
	return 0;
    1092:	c0 e0       	ldi	r28, 0x00	; 0
    1094:	03 c0       	rjmp	.+6      	; 0x109c <KBDchar+0x8e>
			}
			else return keyData;
		}
		else
		{
			return 0;
    1096:	c0 e0       	ldi	r28, 0x00	; 0
    1098:	01 c0       	rjmp	.+2      	; 0x109c <KBDchar+0x8e>
    109a:	c0 e0       	ldi	r28, 0x00	; 0
		}		
	}
	keyPrevious = 0;
	return 0;
    109c:	8c 2f       	mov	r24, r28
    109e:	df 91       	pop	r29
    10a0:	cf 91       	pop	r28
    10a2:	1f 91       	pop	r17
    10a4:	08 95       	ret

000010a6 <SPI_MasterInit>:
#include "Macroes.h"

void SPI_MasterInit()
{
	// Set MOSI and SCK  & SS output, all others input
	DDRB |= (1<<DDB5)|(1<<DDB3)|(1<<DDB2);// PB5 = SCK, PB3 = MOSI, PB2 = SS(No effect when output)
    10a6:	84 b1       	in	r24, 0x04	; 4
    10a8:	8c 62       	ori	r24, 0x2C	; 44
    10aa:	84 b9       	out	0x04, r24	; 4
	//PORTB |= (1<<PORTB2); //Pull up resistor on SS input to ensure Master mode
	// Enable SPI, Master, set clock rate fck/64
	SPCR = (1<<SPE)|(1<<MSTR)|(1<<SPR1);
    10ac:	82 e5       	ldi	r24, 0x52	; 82
    10ae:	8c bd       	out	0x2c, r24	; 44
    10b0:	08 95       	ret

000010b2 <SPI_MasterTransmit>:
}

void SPI_MasterTransmit(char cData)
{
	// Start transmission
	SPDR = cData;
    10b2:	8e bd       	out	0x2e, r24	; 46
	// Wait for transmission complete
	while(!(SPSR & (1<<SPIF)));
    10b4:	0d b4       	in	r0, 0x2d	; 45
    10b6:	07 fe       	sbrs	r0, 7
    10b8:	fd cf       	rjmp	.-6      	; 0x10b4 <SPI_MasterTransmit+0x2>
}
    10ba:	08 95       	ret

000010bc <RFID_init>:
int state = stateIdle;
unsigned int dataIndex = 0;

void RFID_init()
{
	EICRA |= (1<<ISC11)|(1<<ISC10)|(1<<ISC01)|(1<<ISC00); // Get interrupt on rising edge
    10bc:	e9 e6       	ldi	r30, 0x69	; 105
    10be:	f0 e0       	ldi	r31, 0x00	; 0
    10c0:	80 81       	ld	r24, Z
    10c2:	8f 60       	ori	r24, 0x0F	; 15
    10c4:	80 83       	st	Z, r24
	EIMSK |= (1<<INT1)|(1<<INT0); // Enable external interrupts
    10c6:	8d b3       	in	r24, 0x1d	; 29
    10c8:	83 60       	ori	r24, 0x03	; 3
    10ca:	8d bb       	out	0x1d, r24	; 29
	DDRD &= ~(1<<DDD3)&~(1<<DDD2); //Set external interrupts INT0 & INT1 as inputs
    10cc:	8a b1       	in	r24, 0x0a	; 10
    10ce:	83 7f       	andi	r24, 0xF3	; 243
    10d0:	8a b9       	out	0x0a, r24	; 10
	DDRB |= (1<<DDB2); //Set SS as output. RFID
    10d2:	22 9a       	sbi	0x04, 2	; 4
	PORTB |= (1<<PORTB2); //Set SS high (Active low)
    10d4:	2a 9a       	sbi	0x05, 2	; 5
    10d6:	08 95       	ret

000010d8 <__vector_18>:
}

ISR(USART_RX_vect)
{
    10d8:	1f 92       	push	r1
    10da:	0f 92       	push	r0
    10dc:	0f b6       	in	r0, 0x3f	; 63
    10de:	0f 92       	push	r0
    10e0:	11 24       	eor	r1, r1
    10e2:	2f 93       	push	r18
    10e4:	8f 93       	push	r24
    10e6:	9f 93       	push	r25
    10e8:	ef 93       	push	r30
    10ea:	ff 93       	push	r31
	receiveBuffer[dataIndex] = UDR0;
    10ec:	80 91 3a 06 	lds	r24, 0x063A
    10f0:	90 91 3b 06 	lds	r25, 0x063B
    10f4:	20 91 c6 00 	lds	r18, 0x00C6
    10f8:	fc 01       	movw	r30, r24
    10fa:	e2 5b       	subi	r30, 0xB2	; 178
    10fc:	fa 4f       	sbci	r31, 0xFA	; 250
    10fe:	20 83       	st	Z, r18
	if (receiveBuffer[dataIndex] == '*')
    1100:	2a 32       	cpi	r18, 0x2A	; 42
    1102:	41 f4       	brne	.+16     	; 0x1114 <__vector_18+0x3c>
	{
		dataIndex = 0;
    1104:	10 92 3b 06 	sts	0x063B, r1
    1108:	10 92 3a 06 	sts	0x063A, r1
		packetReceived = true;
    110c:	81 e0       	ldi	r24, 0x01	; 1
    110e:	80 93 3f 06 	sts	0x063F, r24
    1112:	05 c0       	rjmp	.+10     	; 0x111e <__vector_18+0x46>
	}
	else dataIndex++;
    1114:	01 96       	adiw	r24, 0x01	; 1
    1116:	90 93 3b 06 	sts	0x063B, r25
    111a:	80 93 3a 06 	sts	0x063A, r24
}
    111e:	ff 91       	pop	r31
    1120:	ef 91       	pop	r30
    1122:	9f 91       	pop	r25
    1124:	8f 91       	pop	r24
    1126:	2f 91       	pop	r18
    1128:	0f 90       	pop	r0
    112a:	0f be       	out	0x3f, r0	; 63
    112c:	0f 90       	pop	r0
    112e:	1f 90       	pop	r1
    1130:	18 95       	reti

00001132 <__vector_11>:

ISR(TIMER1_COMPA_vect) // Comes every 1ms
{
    1132:	1f 92       	push	r1
    1134:	0f 92       	push	r0
    1136:	0f b6       	in	r0, 0x3f	; 63
    1138:	0f 92       	push	r0
    113a:	11 24       	eor	r1, r1
    113c:	8f 93       	push	r24
    113e:	9f 93       	push	r25
	volatile static uint16_t count1Min = INTERVAL_MIN, count1Sec = INTERVAL_SEC,count9ms = INTERVAL_READKEYS, count100ms = INTERVAL_COM_TIMEOUT,count10Sec = INTERVAL_CONNECT_CAR_TIMEOUT;
	if (chargingActive)
    1140:	80 91 49 06 	lds	r24, 0x0649
    1144:	88 23       	and	r24, r24
    1146:	f1 f0       	breq	.+60     	; 0x1184 <__vector_11+0x52>
	{
		if ((--count1Sec) ==0)  // Do if 1 minus countSec = 0
    1148:	80 91 09 01 	lds	r24, 0x0109
    114c:	90 91 0a 01 	lds	r25, 0x010A
    1150:	01 97       	sbiw	r24, 0x01	; 1
    1152:	90 93 0a 01 	sts	0x010A, r25
    1156:	80 93 09 01 	sts	0x0109, r24
    115a:	89 2b       	or	r24, r25
    115c:	c9 f4       	brne	.+50     	; 0x1190 <__vector_11+0x5e>
		{
			timeChargedInSeconds++;
    115e:	80 91 4c 05 	lds	r24, 0x054C
    1162:	90 91 4d 05 	lds	r25, 0x054D
    1166:	01 96       	adiw	r24, 0x01	; 1
    1168:	90 93 4d 05 	sts	0x054D, r25
    116c:	80 93 4c 05 	sts	0x054C, r24
			count1Sec = INTERVAL_SEC; // 1000
    1170:	88 ee       	ldi	r24, 0xE8	; 232
    1172:	93 e0       	ldi	r25, 0x03	; 3
    1174:	90 93 0a 01 	sts	0x010A, r25
    1178:	80 93 09 01 	sts	0x0109, r24
			takeSample = true;      // Set runSec to 1. Activating this function to be run next time
    117c:	81 e0       	ldi	r24, 0x01	; 1
    117e:	80 93 4a 06 	sts	0x064A, r24
    1182:	06 c0       	rjmp	.+12     	; 0x1190 <__vector_11+0x5e>
		}
	}
	else count1Sec = INTERVAL_SEC;
    1184:	88 ee       	ldi	r24, 0xE8	; 232
    1186:	93 e0       	ldi	r25, 0x03	; 3
    1188:	90 93 0a 01 	sts	0x010A, r25
    118c:	80 93 09 01 	sts	0x0109, r24
	
	if (keypadActive)
    1190:	80 91 45 06 	lds	r24, 0x0645
    1194:	88 23       	and	r24, r24
    1196:	a9 f0       	breq	.+42     	; 0x11c2 <__vector_11+0x90>
	{
		if ((--count9ms) ==0)  // Do if 1 minus count9ms = 0 and keypadActive = true
    1198:	80 91 07 01 	lds	r24, 0x0107
    119c:	90 91 08 01 	lds	r25, 0x0108
    11a0:	01 97       	sbiw	r24, 0x01	; 1
    11a2:	90 93 08 01 	sts	0x0108, r25
    11a6:	80 93 07 01 	sts	0x0107, r24
    11aa:	89 2b       	or	r24, r25
    11ac:	81 f4       	brne	.+32     	; 0x11ce <__vector_11+0x9c>
		{
			count9ms = INTERVAL_READKEYS; //
    11ae:	89 e0       	ldi	r24, 0x09	; 9
    11b0:	90 e0       	ldi	r25, 0x00	; 0
    11b2:	90 93 08 01 	sts	0x0108, r25
    11b6:	80 93 07 01 	sts	0x0107, r24
			readKeys = true;      // Set readKeys to 1. Activating this function to be run next time
    11ba:	81 e0       	ldi	r24, 0x01	; 1
    11bc:	80 93 48 06 	sts	0x0648, r24
    11c0:	06 c0       	rjmp	.+12     	; 0x11ce <__vector_11+0x9c>
		}
	}
	else count9ms = INTERVAL_READKEYS;
    11c2:	89 e0       	ldi	r24, 0x09	; 9
    11c4:	90 e0       	ldi	r25, 0x00	; 0
    11c6:	90 93 08 01 	sts	0x0108, r25
    11ca:	80 93 07 01 	sts	0x0107, r24
	
	if (startComTimeout)
    11ce:	80 91 41 06 	lds	r24, 0x0641
    11d2:	88 23       	and	r24, r24
    11d4:	a9 f0       	breq	.+42     	; 0x1200 <__vector_11+0xce>
	{
		if ((--count100ms) ==0)  // Do if 1 minus count9ms = 0 and keypadActive = true
    11d6:	80 91 05 01 	lds	r24, 0x0105
    11da:	90 91 06 01 	lds	r25, 0x0106
    11de:	01 97       	sbiw	r24, 0x01	; 1
    11e0:	90 93 06 01 	sts	0x0106, r25
    11e4:	80 93 05 01 	sts	0x0105, r24
    11e8:	89 2b       	or	r24, r25
    11ea:	81 f4       	brne	.+32     	; 0x120c <__vector_11+0xda>
		{
			count100ms = INTERVAL_COM_TIMEOUT; //
    11ec:	80 e1       	ldi	r24, 0x10	; 16
    11ee:	97 e2       	ldi	r25, 0x27	; 39
    11f0:	90 93 06 01 	sts	0x0106, r25
    11f4:	80 93 05 01 	sts	0x0105, r24
			comTimeout = true;      // Set readKeys to 1. Activating this function to be run next time
    11f8:	81 e0       	ldi	r24, 0x01	; 1
    11fa:	80 93 43 06 	sts	0x0643, r24
    11fe:	06 c0       	rjmp	.+12     	; 0x120c <__vector_11+0xda>
		}
	}
	else count100ms = INTERVAL_COM_TIMEOUT;
    1200:	80 e1       	ldi	r24, 0x10	; 16
    1202:	97 e2       	ldi	r25, 0x27	; 39
    1204:	90 93 06 01 	sts	0x0106, r25
    1208:	80 93 05 01 	sts	0x0105, r24

	if (startConnectCarTimeout)
    120c:	80 91 40 06 	lds	r24, 0x0640
    1210:	88 23       	and	r24, r24
    1212:	a9 f0       	breq	.+42     	; 0x123e <__vector_11+0x10c>
	{
		if ((--count10Sec) ==0)  // Do if 1 minus count9ms = 0 and keypadActive = true
    1214:	80 91 03 01 	lds	r24, 0x0103
    1218:	90 91 04 01 	lds	r25, 0x0104
    121c:	01 97       	sbiw	r24, 0x01	; 1
    121e:	90 93 04 01 	sts	0x0104, r25
    1222:	80 93 03 01 	sts	0x0103, r24
    1226:	89 2b       	or	r24, r25
    1228:	81 f4       	brne	.+32     	; 0x124a <__vector_11+0x118>
		{
			count10Sec = INTERVAL_CONNECT_CAR_TIMEOUT; //
    122a:	80 e1       	ldi	r24, 0x10	; 16
    122c:	97 e2       	ldi	r25, 0x27	; 39
    122e:	90 93 04 01 	sts	0x0104, r25
    1232:	80 93 03 01 	sts	0x0103, r24
			connectCarTimeout = true;      // Set readKeys to 1. Activating this function to be run next time
    1236:	81 e0       	ldi	r24, 0x01	; 1
    1238:	80 93 42 06 	sts	0x0642, r24
    123c:	06 c0       	rjmp	.+12     	; 0x124a <__vector_11+0x118>
		}
	}
	else count10Sec = INTERVAL_CONNECT_CAR_TIMEOUT;
    123e:	80 e1       	ldi	r24, 0x10	; 16
    1240:	97 e2       	ldi	r25, 0x27	; 39
    1242:	90 93 04 01 	sts	0x0104, r25
    1246:	80 93 03 01 	sts	0x0103, r24
	
	if (noConnection)
    124a:	80 91 4c 06 	lds	r24, 0x064C
    124e:	88 23       	and	r24, r24
    1250:	a9 f0       	breq	.+42     	; 0x127c <__vector_11+0x14a>
	{
		if ((--count1Min) ==0)  // Do if 1 minus count9ms = 0 and keypadActive = true
    1252:	80 91 01 01 	lds	r24, 0x0101
    1256:	90 91 02 01 	lds	r25, 0x0102
    125a:	01 97       	sbiw	r24, 0x01	; 1
    125c:	90 93 02 01 	sts	0x0102, r25
    1260:	80 93 01 01 	sts	0x0101, r24
    1264:	89 2b       	or	r24, r25
    1266:	81 f4       	brne	.+32     	; 0x1288 <__vector_11+0x156>
		{
			count1Min = INTERVAL_MIN; //
    1268:	80 e6       	ldi	r24, 0x60	; 96
    126a:	9a ee       	ldi	r25, 0xEA	; 234
    126c:	90 93 02 01 	sts	0x0102, r25
    1270:	80 93 01 01 	sts	0x0101, r24
			tryConnect = true;      // Set readKeys to 1. Activating this function to be run next time
    1274:	81 e0       	ldi	r24, 0x01	; 1
    1276:	80 93 4b 06 	sts	0x064B, r24
    127a:	06 c0       	rjmp	.+12     	; 0x1288 <__vector_11+0x156>
		}
	}
	else count1Min = INTERVAL_MIN;
    127c:	80 e6       	ldi	r24, 0x60	; 96
    127e:	9a ee       	ldi	r25, 0xEA	; 234
    1280:	90 93 02 01 	sts	0x0102, r25
    1284:	80 93 01 01 	sts	0x0101, r24
}
    1288:	9f 91       	pop	r25
    128a:	8f 91       	pop	r24
    128c:	0f 90       	pop	r0
    128e:	0f be       	out	0x3f, r0	; 63
    1290:	0f 90       	pop	r0
    1292:	1f 90       	pop	r1
    1294:	18 95       	reti

00001296 <__vector_1>:

ISR(INT0_vect)
{
    1296:	1f 92       	push	r1
    1298:	0f 92       	push	r0
    129a:	0f b6       	in	r0, 0x3f	; 63
    129c:	0f 92       	push	r0
    129e:	11 24       	eor	r1, r1
    12a0:	8f 93       	push	r24
	if (!dataReady) cardPresent = true;
    12a2:	80 91 46 06 	lds	r24, 0x0646
    12a6:	81 11       	cpse	r24, r1
    12a8:	03 c0       	rjmp	.+6      	; 0x12b0 <__vector_1+0x1a>
    12aa:	81 e0       	ldi	r24, 0x01	; 1
    12ac:	80 93 47 06 	sts	0x0647, r24
	//UART_Transmit_String("card present");
}
    12b0:	8f 91       	pop	r24
    12b2:	0f 90       	pop	r0
    12b4:	0f be       	out	0x3f, r0	; 63
    12b6:	0f 90       	pop	r0
    12b8:	1f 90       	pop	r1
    12ba:	18 95       	reti

000012bc <__vector_2>:

ISR(INT1_vect)
{
    12bc:	1f 92       	push	r1
    12be:	0f 92       	push	r0
    12c0:	0f b6       	in	r0, 0x3f	; 63
    12c2:	0f 92       	push	r0
    12c4:	11 24       	eor	r1, r1
    12c6:	8f 93       	push	r24
	dataReady = true;
    12c8:	81 e0       	ldi	r24, 0x01	; 1
    12ca:	80 93 46 06 	sts	0x0646, r24
	//UART_Transmit_String("data ready");
}
    12ce:	8f 91       	pop	r24
    12d0:	0f 90       	pop	r0
    12d2:	0f be       	out	0x3f, r0	; 63
    12d4:	0f 90       	pop	r0
    12d6:	1f 90       	pop	r1
    12d8:	18 95       	reti

000012da <Timer_init>:

void Timer_init()
{
	TCCR1B = (1<<CS10)|(1<<WGM12);  // Set clock no prescaler(16Mhz) & mode 4 CTC
    12da:	89 e0       	ldi	r24, 0x09	; 9
    12dc:	80 93 81 00 	sts	0x0081, r24
	OCR1A = 15999;                  // Get interrupt at 15999 = every 1mS
    12e0:	8f e7       	ldi	r24, 0x7F	; 127
    12e2:	9e e3       	ldi	r25, 0x3E	; 62
    12e4:	90 93 89 00 	sts	0x0089, r25
    12e8:	80 93 88 00 	sts	0x0088, r24
	TIMSK1 = (1<<OCIE1A);            // Enable interrupt compare match
    12ec:	82 e0       	ldi	r24, 0x02	; 2
    12ee:	80 93 6f 00 	sts	0x006F, r24
    12f2:	08 95       	ret

000012f4 <main>:
}

int main(void)
{
	int preState = 99;
	SPI_MasterInit();
    12f4:	0e 94 53 08 	call	0x10a6	; 0x10a6 <SPI_MasterInit>
	UART_Init();
    12f8:	0e 94 72 0b 	call	0x16e4	; 0x16e4 <UART_Init>
	RFID_init();
    12fc:	0e 94 5e 08 	call	0x10bc	; 0x10bc <RFID_init>
	Timer_init();
    1300:	0e 94 6d 09 	call	0x12da	; 0x12da <Timer_init>
	Disp_init();
    1304:	0e 94 9e 05 	call	0xb3c	; 0xb3c <Disp_init>
	ADC_init();
    1308:	0e 94 d4 00 	call	0x1a8	; 0x1a8 <ADC_init>
	sei();
    130c:	78 94       	sei
	UART_Transmit_String("Card test \n");
    130e:	88 e3       	ldi	r24, 0x38	; 56
    1310:	94 e0       	ldi	r25, 0x04	; 4
    1312:	0e 94 87 0b 	call	0x170e	; 0x170e <UART_Transmit_String>
	TIMSK1 = (1<<OCIE1A);            // Enable interrupt compare match
}

int main(void)
{
	int preState = 99;
    1316:	23 e6       	ldi	r18, 0x63	; 99
    1318:	30 e0       	ldi	r19, 0x00	; 0
				{
					UART_Transmit_String("stateDisconnectCar \n");
					Disp_printState(state);
					while (ADC_Sample() > 5);
					preState = state;
					state = stateUploadToDB;
    131a:	c8 e0       	ldi	r28, 0x08	; 8
    131c:	d0 e0       	ldi	r29, 0x00	; 0
					preState = state;
					//state = stateIdle;
				}
				break;
				
				default : state=stateErrorState; break;
    131e:	0f 2e       	mov	r0, r31
    1320:	fe e0       	ldi	r31, 0x0E	; 14
    1322:	cf 2e       	mov	r12, r31
    1324:	d1 2c       	mov	r13, r1
    1326:	f0 2d       	mov	r31, r0
					UART_Transmit_String("stateConnectCar \n");
					Disp_printState(state);
					if (CarConnected())
					{
						preState = state;
						state = stateCharging;
    1328:	0f 2e       	mov	r0, r31
    132a:	f5 e0       	ldi	r31, 0x05	; 5
    132c:	8f 2e       	mov	r8, r31
    132e:	91 2c       	mov	r9, r1
    1330:	f0 2d       	mov	r31, r0
						state = stateIdle;
					} 
					else
					{
						preState = state;
						state = stateDBoffline;
    1332:	0f 2e       	mov	r0, r31
    1334:	f9 e0       	ldi	r31, 0x09	; 9
    1336:	6f 2e       	mov	r6, r31
    1338:	71 2c       	mov	r7, r1
    133a:	f0 2d       	mov	r31, r0
					if (ValidatePassword())// Get typed password and validate in database
					{
						if (ADC_Sample() < 5)
						{
							preState = state;
							state = stateConnectCar;
    133c:	0f 2e       	mov	r0, r31
    133e:	fd e0       	ldi	r31, 0x0D	; 13
    1340:	2f 2e       	mov	r2, r31
    1342:	31 2c       	mov	r3, r1
    1344:	f0 2d       	mov	r31, r0
				{
					UART_Transmit_String("stateCharging \n");
					Disp_printState(state);
					BeginCharging();
					preState = state;
					state = stateChargingStopped;
    1346:	0f 2e       	mov	r0, r31
    1348:	f6 e0       	ldi	r31, 0x06	; 6
    134a:	ef 2e       	mov	r14, r31
    134c:	f1 2c       	mov	r15, r1
    134e:	f0 2d       	mov	r31, r0
					UART_Transmit_String("stateChargingStopped \n");
					Disp_printState(state);
					if (ADC_Sample() > 5)
					{
						preState = state;
						state = stateDisconnectCar;
    1350:	0f 2e       	mov	r0, r31
    1352:	f7 e0       	ldi	r31, 0x07	; 7
    1354:	4f 2e       	mov	r4, r31
    1356:	51 2c       	mov	r5, r1
    1358:	f0 2d       	mov	r31, r0
				case stateWrongPassword:
				{
					UART_Transmit_String("stateWrongPassword \n");
					Disp_printState(state);
					preState = state;
					state = stateTypePassword;
    135a:	03 e0       	ldi	r16, 0x03	; 3
    135c:	10 e0       	ldi	r17, 0x00	; 0
						gotUID = false;
					}
					else
					{
						preState = state;
						state = stateCardReadError;
    135e:	0f 2e       	mov	r0, r31
    1360:	fc e0       	ldi	r31, 0x0C	; 12
    1362:	af 2e       	mov	r10, r31
    1364:	b1 2c       	mov	r11, r1
    1366:	f0 2d       	mov	r31, r0
    1368:	01 c0       	rjmp	.+2      	; 0x136c <main+0x78>
	ADC_init();
	sei();
	UART_Transmit_String("Card test \n");
	while(1)
	{
		if ((state != preState) || (cardPresent && (state == stateIdle)))
    136a:	9c 01       	movw	r18, r24
    136c:	80 91 3c 06 	lds	r24, 0x063C
    1370:	90 91 3d 06 	lds	r25, 0x063D
    1374:	82 17       	cp	r24, r18
    1376:	93 07       	cpc	r25, r19
    1378:	41 f4       	brne	.+16     	; 0x138a <main+0x96>
    137a:	20 91 47 06 	lds	r18, 0x0647
    137e:	22 23       	and	r18, r18
    1380:	a1 f3       	breq	.-24     	; 0x136a <main+0x76>
    1382:	00 97       	sbiw	r24, 0x00	; 0
    1384:	91 f1       	breq	.+100    	; 0x13ea <main+0xf6>
    1386:	9c 01       	movw	r18, r24
    1388:	f1 cf       	rjmp	.-30     	; 0x136c <main+0x78>
		{
			switch(state)
    138a:	87 30       	cpi	r24, 0x07	; 7
    138c:	91 05       	cpc	r25, r1
    138e:	09 f4       	brne	.+2      	; 0x1392 <main+0x9e>
    1390:	49 c1       	rjmp	.+658    	; 0x1624 <main+0x330>
    1392:	94 f4       	brge	.+36     	; 0x13b8 <main+0xc4>
    1394:	83 30       	cpi	r24, 0x03	; 3
    1396:	91 05       	cpc	r25, r1
    1398:	09 f4       	brne	.+2      	; 0x139c <main+0xa8>
    139a:	8b c0       	rjmp	.+278    	; 0x14b2 <main+0x1be>
    139c:	34 f4       	brge	.+12     	; 0x13aa <main+0xb6>
    139e:	00 97       	sbiw	r24, 0x00	; 0
    13a0:	21 f1       	breq	.+72     	; 0x13ea <main+0xf6>
    13a2:	02 97       	sbiw	r24, 0x02	; 2
    13a4:	09 f0       	breq	.+2      	; 0x13a8 <main+0xb4>
    13a6:	99 c1       	rjmp	.+818    	; 0x16da <main+0x3e6>
    13a8:	42 c0       	rjmp	.+132    	; 0x142e <main+0x13a>
    13aa:	85 30       	cpi	r24, 0x05	; 5
    13ac:	91 05       	cpc	r25, r1
    13ae:	09 f4       	brne	.+2      	; 0x13b2 <main+0xbe>
    13b0:	04 c1       	rjmp	.+520    	; 0x15ba <main+0x2c6>
    13b2:	0c f0       	brlt	.+2      	; 0x13b6 <main+0xc2>
    13b4:	17 c1       	rjmp	.+558    	; 0x15e4 <main+0x2f0>
    13b6:	ce c0       	rjmp	.+412    	; 0x1554 <main+0x260>
    13b8:	8a 30       	cpi	r24, 0x0A	; 10
    13ba:	91 05       	cpc	r25, r1
    13bc:	09 f4       	brne	.+2      	; 0x13c0 <main+0xcc>
    13be:	b7 c0       	rjmp	.+366    	; 0x152e <main+0x23a>
    13c0:	44 f4       	brge	.+16     	; 0x13d2 <main+0xde>
    13c2:	88 30       	cpi	r24, 0x08	; 8
    13c4:	91 05       	cpc	r25, r1
    13c6:	09 f4       	brne	.+2      	; 0x13ca <main+0xd6>
    13c8:	44 c1       	rjmp	.+648    	; 0x1652 <main+0x35e>
    13ca:	09 97       	sbiw	r24, 0x09	; 9
    13cc:	09 f0       	breq	.+2      	; 0x13d0 <main+0xdc>
    13ce:	85 c1       	rjmp	.+778    	; 0x16da <main+0x3e6>
    13d0:	60 c1       	rjmp	.+704    	; 0x1692 <main+0x39e>
    13d2:	8d 30       	cpi	r24, 0x0D	; 13
    13d4:	91 05       	cpc	r25, r1
    13d6:	09 f4       	brne	.+2      	; 0x13da <main+0xe6>
    13d8:	d0 c0       	rjmp	.+416    	; 0x157a <main+0x286>
    13da:	8e 30       	cpi	r24, 0x0E	; 14
    13dc:	91 05       	cpc	r25, r1
    13de:	09 f4       	brne	.+2      	; 0x13e2 <main+0xee>
    13e0:	6d c1       	rjmp	.+730    	; 0x16bc <main+0x3c8>
    13e2:	0c 97       	sbiw	r24, 0x0c	; 12
    13e4:	09 f0       	breq	.+2      	; 0x13e8 <main+0xf4>
    13e6:	79 c1       	rjmp	.+754    	; 0x16da <main+0x3e6>
    13e8:	51 c0       	rjmp	.+162    	; 0x148c <main+0x198>
			{
				case stateIdle :
				{
					UART_Transmit_String("stateIdle \n");
    13ea:	84 e4       	ldi	r24, 0x44	; 68
    13ec:	94 e0       	ldi	r25, 0x04	; 4
    13ee:	0e 94 87 0b 	call	0x170e	; 0x170e <UART_Transmit_String>
					Disp_printState(state);
    13f2:	80 91 3c 06 	lds	r24, 0x063C
    13f6:	90 91 3d 06 	lds	r25, 0x063D
    13fa:	0e 94 29 06 	call	0xc52	; 0xc52 <Disp_printState>
					if(cardPresent)
    13fe:	80 91 47 06 	lds	r24, 0x0647
    1402:	88 23       	and	r24, r24
    1404:	79 f0       	breq	.+30     	; 0x1424 <main+0x130>
					{
						UART_Transmit_String("Card Present \n");
    1406:	80 e5       	ldi	r24, 0x50	; 80
    1408:	94 e0       	ldi	r25, 0x04	; 4
    140a:	0e 94 87 0b 	call	0x170e	; 0x170e <UART_Transmit_String>
						GetUID();
    140e:	0e 94 f4 00 	call	0x1e8	; 0x1e8 <GetUID>
						preState = state;
    1412:	20 91 3c 06 	lds	r18, 0x063C
    1416:	30 91 3d 06 	lds	r19, 0x063D
						//state=stateCardSwiped;
						state = stateConnectCar;
    141a:	30 92 3d 06 	sts	0x063D, r3
    141e:	20 92 3c 06 	sts	0x063C, r2
    1422:	a4 cf       	rjmp	.-184    	; 0x136c <main+0x78>
					}
					else preState = state;
    1424:	20 91 3c 06 	lds	r18, 0x063C
    1428:	30 91 3d 06 	lds	r19, 0x063D
    142c:	9f cf       	rjmp	.-194    	; 0x136c <main+0x78>
				}
				break;
				
				case stateCardSwiped :
				{
					UART_Transmit_String("stateCardSwiped \n");
    142e:	8f e5       	ldi	r24, 0x5F	; 95
    1430:	94 e0       	ldi	r25, 0x04	; 4
    1432:	0e 94 87 0b 	call	0x170e	; 0x170e <UART_Transmit_String>
					if (gotUID)
    1436:	80 91 44 06 	lds	r24, 0x0644
    143a:	88 23       	and	r24, r24
    143c:	f1 f0       	breq	.+60     	; 0x147a <main+0x186>
					{
						UART_Transmit_String("got UID \n");
    143e:	81 e7       	ldi	r24, 0x71	; 113
    1440:	94 e0       	ldi	r25, 0x04	; 4
    1442:	0e 94 87 0b 	call	0x170e	; 0x170e <UART_Transmit_String>
						if (CardKnown()) // Find card ID in database
    1446:	0e 94 28 02 	call	0x450	; 0x450 <CardKnown>
    144a:	88 23       	and	r24, r24
    144c:	49 f0       	breq	.+18     	; 0x1460 <main+0x16c>
						{
							preState = state;
    144e:	20 91 3c 06 	lds	r18, 0x063C
    1452:	30 91 3d 06 	lds	r19, 0x063D
							state = stateTypePassword;
    1456:	10 93 3d 06 	sts	0x063D, r17
    145a:	00 93 3c 06 	sts	0x063C, r16
    145e:	0a c0       	rjmp	.+20     	; 0x1474 <main+0x180>
						}
						else
						{
							preState = state;
    1460:	20 91 3c 06 	lds	r18, 0x063C
    1464:	30 91 3d 06 	lds	r19, 0x063D
							state = stateUnknownCard;
    1468:	8a e0       	ldi	r24, 0x0A	; 10
    146a:	90 e0       	ldi	r25, 0x00	; 0
    146c:	90 93 3d 06 	sts	0x063D, r25
    1470:	80 93 3c 06 	sts	0x063C, r24
						}
						gotUID = false;
    1474:	10 92 44 06 	sts	0x0644, r1
    1478:	79 cf       	rjmp	.-270    	; 0x136c <main+0x78>
					}
					else
					{
						preState = state;
    147a:	20 91 3c 06 	lds	r18, 0x063C
    147e:	30 91 3d 06 	lds	r19, 0x063D
						state = stateCardReadError;
    1482:	b0 92 3d 06 	sts	0x063D, r11
    1486:	a0 92 3c 06 	sts	0x063C, r10
    148a:	70 cf       	rjmp	.-288    	; 0x136c <main+0x78>
				}
				break;
				
				case stateCardReadError:
				{
					UART_Transmit_String("Did not get UID \n");
    148c:	8b e7       	ldi	r24, 0x7B	; 123
    148e:	94 e0       	ldi	r25, 0x04	; 4
    1490:	0e 94 87 0b 	call	0x170e	; 0x170e <UART_Transmit_String>
					Disp_printState(state);
    1494:	80 91 3c 06 	lds	r24, 0x063C
    1498:	90 91 3d 06 	lds	r25, 0x063D
    149c:	0e 94 29 06 	call	0xc52	; 0xc52 <Disp_printState>
					preState = state;
    14a0:	20 91 3c 06 	lds	r18, 0x063C
    14a4:	30 91 3d 06 	lds	r19, 0x063D
					state = stateIdle;
    14a8:	10 92 3d 06 	sts	0x063D, r1
    14ac:	10 92 3c 06 	sts	0x063C, r1
				}
				break;
    14b0:	5d cf       	rjmp	.-326    	; 0x136c <main+0x78>
				
				case stateTypePassword:
				{
					UART_Transmit_String("stateTypePassword \n");
    14b2:	8d e8       	ldi	r24, 0x8D	; 141
    14b4:	94 e0       	ldi	r25, 0x04	; 4
    14b6:	0e 94 87 0b 	call	0x170e	; 0x170e <UART_Transmit_String>
					Disp_printState(state);
    14ba:	80 91 3c 06 	lds	r24, 0x063C
    14be:	90 91 3d 06 	lds	r25, 0x063D
    14c2:	0e 94 29 06 	call	0xc52	; 0xc52 <Disp_printState>
					if (ValidatePassword())// Get typed password and validate in database
    14c6:	0e 94 7e 02 	call	0x4fc	; 0x4fc <ValidatePassword>
    14ca:	88 23       	and	r24, r24
    14cc:	b1 f0       	breq	.+44     	; 0x14fa <main+0x206>
					{
						if (ADC_Sample() < 5)
    14ce:	0e 94 e5 00 	call	0x1ca	; 0x1ca <ADC_Sample>
    14d2:	05 97       	sbiw	r24, 0x05	; 5
    14d4:	48 f4       	brcc	.+18     	; 0x14e8 <main+0x1f4>
						{
							preState = state;
    14d6:	20 91 3c 06 	lds	r18, 0x063C
    14da:	30 91 3d 06 	lds	r19, 0x063D
							state = stateConnectCar;
    14de:	30 92 3d 06 	sts	0x063D, r3
    14e2:	20 92 3c 06 	sts	0x063C, r2
    14e6:	42 cf       	rjmp	.-380    	; 0x136c <main+0x78>
						}
						else
						{
							preState = state;
    14e8:	20 91 3c 06 	lds	r18, 0x063C
    14ec:	30 91 3d 06 	lds	r19, 0x063D
							state = stateCharging;
    14f0:	90 92 3d 06 	sts	0x063D, r9
    14f4:	80 92 3c 06 	sts	0x063C, r8
    14f8:	39 cf       	rjmp	.-398    	; 0x136c <main+0x78>
						}
					}
					else
					{
						if (cancelPassword)
    14fa:	80 91 3e 06 	lds	r24, 0x063E
    14fe:	88 23       	and	r24, r24
    1500:	59 f0       	breq	.+22     	; 0x1518 <main+0x224>
						{
							cancelPassword = false;
    1502:	10 92 3e 06 	sts	0x063E, r1
							preState = state;
    1506:	20 91 3c 06 	lds	r18, 0x063C
    150a:	30 91 3d 06 	lds	r19, 0x063D
							state = stateIdle;
    150e:	10 92 3d 06 	sts	0x063D, r1
    1512:	10 92 3c 06 	sts	0x063C, r1
    1516:	2a cf       	rjmp	.-428    	; 0x136c <main+0x78>
						} 
						else
						{
							preState = state;
    1518:	20 91 3c 06 	lds	r18, 0x063C
    151c:	30 91 3d 06 	lds	r19, 0x063D
							state = stateWrongPassword;
    1520:	84 e0       	ldi	r24, 0x04	; 4
    1522:	90 e0       	ldi	r25, 0x00	; 0
    1524:	90 93 3d 06 	sts	0x063D, r25
    1528:	80 93 3c 06 	sts	0x063C, r24
    152c:	1f cf       	rjmp	.-450    	; 0x136c <main+0x78>
				}
				break;
				
				case stateUnknownCard:
				{
					UART_Transmit_String("stateUnknownCard \n");
    152e:	81 ea       	ldi	r24, 0xA1	; 161
    1530:	94 e0       	ldi	r25, 0x04	; 4
    1532:	0e 94 87 0b 	call	0x170e	; 0x170e <UART_Transmit_String>
					Disp_printState(state);
    1536:	80 91 3c 06 	lds	r24, 0x063C
    153a:	90 91 3d 06 	lds	r25, 0x063D
    153e:	0e 94 29 06 	call	0xc52	; 0xc52 <Disp_printState>
					preState = state;
    1542:	20 91 3c 06 	lds	r18, 0x063C
    1546:	30 91 3d 06 	lds	r19, 0x063D
					state = stateIdle;
    154a:	10 92 3d 06 	sts	0x063D, r1
    154e:	10 92 3c 06 	sts	0x063C, r1
				}
				break;
    1552:	0c cf       	rjmp	.-488    	; 0x136c <main+0x78>
				
				case stateWrongPassword:
				{
					UART_Transmit_String("stateWrongPassword \n");
    1554:	84 eb       	ldi	r24, 0xB4	; 180
    1556:	94 e0       	ldi	r25, 0x04	; 4
    1558:	0e 94 87 0b 	call	0x170e	; 0x170e <UART_Transmit_String>
					Disp_printState(state);
    155c:	80 91 3c 06 	lds	r24, 0x063C
    1560:	90 91 3d 06 	lds	r25, 0x063D
    1564:	0e 94 29 06 	call	0xc52	; 0xc52 <Disp_printState>
					preState = state;
    1568:	20 91 3c 06 	lds	r18, 0x063C
    156c:	30 91 3d 06 	lds	r19, 0x063D
					state = stateTypePassword;
    1570:	10 93 3d 06 	sts	0x063D, r17
    1574:	00 93 3c 06 	sts	0x063C, r16
				}
				break;
    1578:	f9 ce       	rjmp	.-526    	; 0x136c <main+0x78>
				
				case stateConnectCar:
				{
					UART_Transmit_String("stateConnectCar \n");
    157a:	89 ec       	ldi	r24, 0xC9	; 201
    157c:	94 e0       	ldi	r25, 0x04	; 4
    157e:	0e 94 87 0b 	call	0x170e	; 0x170e <UART_Transmit_String>
					Disp_printState(state);
    1582:	80 91 3c 06 	lds	r24, 0x063C
    1586:	90 91 3d 06 	lds	r25, 0x063D
    158a:	0e 94 29 06 	call	0xc52	; 0xc52 <Disp_printState>
					if (CarConnected())
    158e:	0e 94 6e 03 	call	0x6dc	; 0x6dc <CarConnected>
    1592:	88 23       	and	r24, r24
    1594:	49 f0       	breq	.+18     	; 0x15a8 <main+0x2b4>
					{
						preState = state;
    1596:	20 91 3c 06 	lds	r18, 0x063C
    159a:	30 91 3d 06 	lds	r19, 0x063D
						state = stateCharging;
    159e:	90 92 3d 06 	sts	0x063D, r9
    15a2:	80 92 3c 06 	sts	0x063C, r8
    15a6:	e2 ce       	rjmp	.-572    	; 0x136c <main+0x78>
					}
					else
					{
						preState = state;
    15a8:	20 91 3c 06 	lds	r18, 0x063C
    15ac:	30 91 3d 06 	lds	r19, 0x063D
						state = stateIdle;
    15b0:	10 92 3d 06 	sts	0x063D, r1
    15b4:	10 92 3c 06 	sts	0x063C, r1
    15b8:	d9 ce       	rjmp	.-590    	; 0x136c <main+0x78>
				}
				break;
				
				case stateCharging:
				{
					UART_Transmit_String("stateCharging \n");
    15ba:	8b ed       	ldi	r24, 0xDB	; 219
    15bc:	94 e0       	ldi	r25, 0x04	; 4
    15be:	0e 94 87 0b 	call	0x170e	; 0x170e <UART_Transmit_String>
					Disp_printState(state);
    15c2:	80 91 3c 06 	lds	r24, 0x063C
    15c6:	90 91 3d 06 	lds	r25, 0x063D
    15ca:	0e 94 29 06 	call	0xc52	; 0xc52 <Disp_printState>
					BeginCharging();
    15ce:	0e 94 8d 03 	call	0x71a	; 0x71a <BeginCharging>
					preState = state;
    15d2:	20 91 3c 06 	lds	r18, 0x063C
    15d6:	30 91 3d 06 	lds	r19, 0x063D
					state = stateChargingStopped;
    15da:	f0 92 3d 06 	sts	0x063D, r15
    15de:	e0 92 3c 06 	sts	0x063C, r14
				}
				break;
    15e2:	c4 ce       	rjmp	.-632    	; 0x136c <main+0x78>
				
				case stateChargingStopped:
				{
					UART_Transmit_String("stateChargingStopped \n");
    15e4:	8b ee       	ldi	r24, 0xEB	; 235
    15e6:	94 e0       	ldi	r25, 0x04	; 4
    15e8:	0e 94 87 0b 	call	0x170e	; 0x170e <UART_Transmit_String>
					Disp_printState(state);
    15ec:	80 91 3c 06 	lds	r24, 0x063C
    15f0:	90 91 3d 06 	lds	r25, 0x063D
    15f4:	0e 94 29 06 	call	0xc52	; 0xc52 <Disp_printState>
					if (ADC_Sample() > 5)
    15f8:	0e 94 e5 00 	call	0x1ca	; 0x1ca <ADC_Sample>
    15fc:	06 97       	sbiw	r24, 0x06	; 6
    15fe:	48 f0       	brcs	.+18     	; 0x1612 <main+0x31e>
					{
						preState = state;
    1600:	20 91 3c 06 	lds	r18, 0x063C
    1604:	30 91 3d 06 	lds	r19, 0x063D
						state = stateDisconnectCar;
    1608:	50 92 3d 06 	sts	0x063D, r5
    160c:	40 92 3c 06 	sts	0x063C, r4
    1610:	ad ce       	rjmp	.-678    	; 0x136c <main+0x78>
					} 
					else
					{
						preState = state;
    1612:	20 91 3c 06 	lds	r18, 0x063C
    1616:	30 91 3d 06 	lds	r19, 0x063D
						state = stateUploadToDB;
    161a:	d0 93 3d 06 	sts	0x063D, r29
    161e:	c0 93 3c 06 	sts	0x063C, r28
    1622:	a4 ce       	rjmp	.-696    	; 0x136c <main+0x78>
				}
				break;
				
				case stateDisconnectCar:
				{
					UART_Transmit_String("stateDisconnectCar \n");
    1624:	82 e0       	ldi	r24, 0x02	; 2
    1626:	95 e0       	ldi	r25, 0x05	; 5
    1628:	0e 94 87 0b 	call	0x170e	; 0x170e <UART_Transmit_String>
					Disp_printState(state);
    162c:	80 91 3c 06 	lds	r24, 0x063C
    1630:	90 91 3d 06 	lds	r25, 0x063D
    1634:	0e 94 29 06 	call	0xc52	; 0xc52 <Disp_printState>
					while (ADC_Sample() > 5);
    1638:	0e 94 e5 00 	call	0x1ca	; 0x1ca <ADC_Sample>
    163c:	06 97       	sbiw	r24, 0x06	; 6
    163e:	e0 f7       	brcc	.-8      	; 0x1638 <main+0x344>
					preState = state;
    1640:	20 91 3c 06 	lds	r18, 0x063C
    1644:	30 91 3d 06 	lds	r19, 0x063D
					state = stateUploadToDB;
    1648:	d0 93 3d 06 	sts	0x063D, r29
    164c:	c0 93 3c 06 	sts	0x063C, r28
				}
				break;
    1650:	8d ce       	rjmp	.-742    	; 0x136c <main+0x78>
				
				case stateUploadToDB:
				{
					UART_Transmit_String("stateUploadToDB \n");
    1652:	87 e1       	ldi	r24, 0x17	; 23
    1654:	95 e0       	ldi	r25, 0x05	; 5
    1656:	0e 94 87 0b 	call	0x170e	; 0x170e <UART_Transmit_String>
					Disp_printState(state);
    165a:	80 91 3c 06 	lds	r24, 0x063C
    165e:	90 91 3d 06 	lds	r25, 0x063D
    1662:	0e 94 29 06 	call	0xc52	; 0xc52 <Disp_printState>
					if (UploadFinishedCharge())
    1666:	0e 94 f9 02 	call	0x5f2	; 0x5f2 <UploadFinishedCharge>
    166a:	88 23       	and	r24, r24
    166c:	49 f0       	breq	.+18     	; 0x1680 <main+0x38c>
					{
						preState = state;
    166e:	20 91 3c 06 	lds	r18, 0x063C
    1672:	30 91 3d 06 	lds	r19, 0x063D
						state = stateIdle;
    1676:	10 92 3d 06 	sts	0x063D, r1
    167a:	10 92 3c 06 	sts	0x063C, r1
    167e:	76 ce       	rjmp	.-788    	; 0x136c <main+0x78>
					} 
					else
					{
						preState = state;
    1680:	20 91 3c 06 	lds	r18, 0x063C
    1684:	30 91 3d 06 	lds	r19, 0x063D
						state = stateDBoffline;
    1688:	70 92 3d 06 	sts	0x063D, r7
    168c:	60 92 3c 06 	sts	0x063C, r6
    1690:	6d ce       	rjmp	.-806    	; 0x136c <main+0x78>
				}
				break;
				
				case stateDBoffline:
				{
					UART_Transmit_String("stateDBoffline \n");
    1692:	89 e2       	ldi	r24, 0x29	; 41
    1694:	95 e0       	ldi	r25, 0x05	; 5
    1696:	0e 94 87 0b 	call	0x170e	; 0x170e <UART_Transmit_String>
					Disp_printState(state);
    169a:	80 91 3c 06 	lds	r24, 0x063C
    169e:	90 91 3d 06 	lds	r25, 0x063D
    16a2:	0e 94 29 06 	call	0xc52	; 0xc52 <Disp_printState>
					TryConnection();
    16a6:	0e 94 4f 03 	call	0x69e	; 0x69e <TryConnection>
					preState = state;
    16aa:	20 91 3c 06 	lds	r18, 0x063C
    16ae:	30 91 3d 06 	lds	r19, 0x063D
					state = stateIdle;
    16b2:	10 92 3d 06 	sts	0x063D, r1
    16b6:	10 92 3c 06 	sts	0x063C, r1
				}
				break;
    16ba:	58 ce       	rjmp	.-848    	; 0x136c <main+0x78>
				
				case stateErrorState:
				{
					UART_Transmit_String("stateErrorState \n");
    16bc:	8a e3       	ldi	r24, 0x3A	; 58
    16be:	95 e0       	ldi	r25, 0x05	; 5
    16c0:	0e 94 87 0b 	call	0x170e	; 0x170e <UART_Transmit_String>
					Disp_printState(state);
    16c4:	80 91 3c 06 	lds	r24, 0x063C
    16c8:	90 91 3d 06 	lds	r25, 0x063D
    16cc:	0e 94 29 06 	call	0xc52	; 0xc52 <Disp_printState>
					preState = state;
    16d0:	20 91 3c 06 	lds	r18, 0x063C
    16d4:	30 91 3d 06 	lds	r19, 0x063D
					//state = stateIdle;
				}
				break;
    16d8:	49 ce       	rjmp	.-878    	; 0x136c <main+0x78>
				
				default : state=stateErrorState; break;
    16da:	d0 92 3d 06 	sts	0x063D, r13
    16de:	c0 92 3c 06 	sts	0x063C, r12
    16e2:	44 ce       	rjmp	.-888    	; 0x136c <main+0x78>

000016e4 <UART_Init>:

void UART_Init()
{
	//SREG = (1<<I); //Enable global interrupts // Same as: sei();
	/* Enable receiver and transmitter */
	UCSR0B = (1<<RXEN0)|(1<<TXEN0)|(1<<RXCIE0);
    16e4:	88 e9       	ldi	r24, 0x98	; 152
    16e6:	80 93 c1 00 	sts	0x00C1, r24
	/* Set frame format: 8data, 1stop bit */
	UCSR0C = (1<<UCSZ00)|(1<<UCSZ01);
    16ea:	86 e0       	ldi	r24, 0x06	; 6
    16ec:	80 93 c2 00 	sts	0x00C2, r24
	UCSR0A = (1<<U2X0);//Double the USART Transmission Speed
    16f0:	82 e0       	ldi	r24, 0x02	; 2
    16f2:	80 93 c0 00 	sts	0x00C0, r24
	/* Set baud rate */
	//UBRR0H = (unsigned char)(baud>>8);
	UBRR0L = 0x67; // 19200
    16f6:	87 e6       	ldi	r24, 0x67	; 103
    16f8:	80 93 c4 00 	sts	0x00C4, r24
    16fc:	08 95       	ret

000016fe <UART_Transmit>:
}

void UART_Transmit(char data)
{
	/* Wait for empty transmit buffer */
	while ( !( UCSR0A & (1<<UDRE0)) );
    16fe:	e0 ec       	ldi	r30, 0xC0	; 192
    1700:	f0 e0       	ldi	r31, 0x00	; 0
    1702:	90 81       	ld	r25, Z
    1704:	95 ff       	sbrs	r25, 5
    1706:	fd cf       	rjmp	.-6      	; 0x1702 <UART_Transmit+0x4>
	/* Put data into buffer, sends the data */
	UDR0 = data;
    1708:	80 93 c6 00 	sts	0x00C6, r24
    170c:	08 95       	ret

0000170e <UART_Transmit_String>:
}

void UART_Transmit_String(char *str)
{
    170e:	cf 93       	push	r28
    1710:	df 93       	push	r29
    1712:	ec 01       	movw	r28, r24
	while (*str > 0)              // Continue until the pointer reaches -
    1714:	88 81       	ld	r24, Y
    1716:	88 23       	and	r24, r24
    1718:	31 f0       	breq	.+12     	; 0x1726 <UART_Transmit_String+0x18>
	while ( !( UCSR0A & (1<<UDRE0)) );
	/* Put data into buffer, sends the data */
	UDR0 = data;
}

void UART_Transmit_String(char *str)
    171a:	21 96       	adiw	r28, 0x01	; 1
{
	while (*str > 0)              // Continue until the pointer reaches -
	{                             // the zero termination of the string
		UART_Transmit(*str);      // Send the value of the pointer address
    171c:	0e 94 7f 0b 	call	0x16fe	; 0x16fe <UART_Transmit>
	UDR0 = data;
}

void UART_Transmit_String(char *str)
{
	while (*str > 0)              // Continue until the pointer reaches -
    1720:	89 91       	ld	r24, Y+
    1722:	81 11       	cpse	r24, r1
    1724:	fb cf       	rjmp	.-10     	; 0x171c <UART_Transmit_String+0xe>
	{                             // the zero termination of the string
		UART_Transmit(*str);      // Send the value of the pointer address
		str++;                    // Increment pointer
	}
}
    1726:	df 91       	pop	r29
    1728:	cf 91       	pop	r28
    172a:	08 95       	ret

0000172c <__subsf3>:
    172c:	50 58       	subi	r21, 0x80	; 128

0000172e <__addsf3>:
    172e:	bb 27       	eor	r27, r27
    1730:	aa 27       	eor	r26, r26
    1732:	0e d0       	rcall	.+28     	; 0x1750 <__addsf3x>
    1734:	ac c1       	rjmp	.+856    	; 0x1a8e <__fp_round>
    1736:	9d d1       	rcall	.+826    	; 0x1a72 <__fp_pscA>
    1738:	30 f0       	brcs	.+12     	; 0x1746 <__addsf3+0x18>
    173a:	a2 d1       	rcall	.+836    	; 0x1a80 <__fp_pscB>
    173c:	20 f0       	brcs	.+8      	; 0x1746 <__addsf3+0x18>
    173e:	31 f4       	brne	.+12     	; 0x174c <__addsf3+0x1e>
    1740:	9f 3f       	cpi	r25, 0xFF	; 255
    1742:	11 f4       	brne	.+4      	; 0x1748 <__addsf3+0x1a>
    1744:	1e f4       	brtc	.+6      	; 0x174c <__addsf3+0x1e>
    1746:	92 c1       	rjmp	.+804    	; 0x1a6c <__fp_nan>
    1748:	0e f4       	brtc	.+2      	; 0x174c <__addsf3+0x1e>
    174a:	e0 95       	com	r30
    174c:	e7 fb       	bst	r30, 7
    174e:	5f c1       	rjmp	.+702    	; 0x1a0e <__fp_inf>

00001750 <__addsf3x>:
    1750:	e9 2f       	mov	r30, r25
    1752:	ae d1       	rcall	.+860    	; 0x1ab0 <__fp_split3>
    1754:	80 f3       	brcs	.-32     	; 0x1736 <__addsf3+0x8>
    1756:	ba 17       	cp	r27, r26
    1758:	62 07       	cpc	r22, r18
    175a:	73 07       	cpc	r23, r19
    175c:	84 07       	cpc	r24, r20
    175e:	95 07       	cpc	r25, r21
    1760:	18 f0       	brcs	.+6      	; 0x1768 <__addsf3x+0x18>
    1762:	71 f4       	brne	.+28     	; 0x1780 <__addsf3x+0x30>
    1764:	9e f5       	brtc	.+102    	; 0x17cc <__addsf3x+0x7c>
    1766:	dd c1       	rjmp	.+954    	; 0x1b22 <__fp_zero>
    1768:	0e f4       	brtc	.+2      	; 0x176c <__addsf3x+0x1c>
    176a:	e0 95       	com	r30
    176c:	0b 2e       	mov	r0, r27
    176e:	ba 2f       	mov	r27, r26
    1770:	a0 2d       	mov	r26, r0
    1772:	0b 01       	movw	r0, r22
    1774:	b9 01       	movw	r22, r18
    1776:	90 01       	movw	r18, r0
    1778:	0c 01       	movw	r0, r24
    177a:	ca 01       	movw	r24, r20
    177c:	a0 01       	movw	r20, r0
    177e:	11 24       	eor	r1, r1
    1780:	ff 27       	eor	r31, r31
    1782:	59 1b       	sub	r21, r25
    1784:	99 f0       	breq	.+38     	; 0x17ac <__addsf3x+0x5c>
    1786:	59 3f       	cpi	r21, 0xF9	; 249
    1788:	50 f4       	brcc	.+20     	; 0x179e <__addsf3x+0x4e>
    178a:	50 3e       	cpi	r21, 0xE0	; 224
    178c:	68 f1       	brcs	.+90     	; 0x17e8 <__addsf3x+0x98>
    178e:	1a 16       	cp	r1, r26
    1790:	f0 40       	sbci	r31, 0x00	; 0
    1792:	a2 2f       	mov	r26, r18
    1794:	23 2f       	mov	r18, r19
    1796:	34 2f       	mov	r19, r20
    1798:	44 27       	eor	r20, r20
    179a:	58 5f       	subi	r21, 0xF8	; 248
    179c:	f3 cf       	rjmp	.-26     	; 0x1784 <__addsf3x+0x34>
    179e:	46 95       	lsr	r20
    17a0:	37 95       	ror	r19
    17a2:	27 95       	ror	r18
    17a4:	a7 95       	ror	r26
    17a6:	f0 40       	sbci	r31, 0x00	; 0
    17a8:	53 95       	inc	r21
    17aa:	c9 f7       	brne	.-14     	; 0x179e <__addsf3x+0x4e>
    17ac:	7e f4       	brtc	.+30     	; 0x17cc <__addsf3x+0x7c>
    17ae:	1f 16       	cp	r1, r31
    17b0:	ba 0b       	sbc	r27, r26
    17b2:	62 0b       	sbc	r22, r18
    17b4:	73 0b       	sbc	r23, r19
    17b6:	84 0b       	sbc	r24, r20
    17b8:	ba f0       	brmi	.+46     	; 0x17e8 <__addsf3x+0x98>
    17ba:	91 50       	subi	r25, 0x01	; 1
    17bc:	a1 f0       	breq	.+40     	; 0x17e6 <__addsf3x+0x96>
    17be:	ff 0f       	add	r31, r31
    17c0:	bb 1f       	adc	r27, r27
    17c2:	66 1f       	adc	r22, r22
    17c4:	77 1f       	adc	r23, r23
    17c6:	88 1f       	adc	r24, r24
    17c8:	c2 f7       	brpl	.-16     	; 0x17ba <__addsf3x+0x6a>
    17ca:	0e c0       	rjmp	.+28     	; 0x17e8 <__addsf3x+0x98>
    17cc:	ba 0f       	add	r27, r26
    17ce:	62 1f       	adc	r22, r18
    17d0:	73 1f       	adc	r23, r19
    17d2:	84 1f       	adc	r24, r20
    17d4:	48 f4       	brcc	.+18     	; 0x17e8 <__addsf3x+0x98>
    17d6:	87 95       	ror	r24
    17d8:	77 95       	ror	r23
    17da:	67 95       	ror	r22
    17dc:	b7 95       	ror	r27
    17de:	f7 95       	ror	r31
    17e0:	9e 3f       	cpi	r25, 0xFE	; 254
    17e2:	08 f0       	brcs	.+2      	; 0x17e6 <__addsf3x+0x96>
    17e4:	b3 cf       	rjmp	.-154    	; 0x174c <__addsf3+0x1e>
    17e6:	93 95       	inc	r25
    17e8:	88 0f       	add	r24, r24
    17ea:	08 f0       	brcs	.+2      	; 0x17ee <__addsf3x+0x9e>
    17ec:	99 27       	eor	r25, r25
    17ee:	ee 0f       	add	r30, r30
    17f0:	97 95       	ror	r25
    17f2:	87 95       	ror	r24
    17f4:	08 95       	ret

000017f6 <__cmpsf2>:
    17f6:	e7 d0       	rcall	.+462    	; 0x19c6 <__fp_cmp>
    17f8:	08 f4       	brcc	.+2      	; 0x17fc <__cmpsf2+0x6>
    17fa:	81 e0       	ldi	r24, 0x01	; 1
    17fc:	08 95       	ret

000017fe <__divsf3>:
    17fe:	0c d0       	rcall	.+24     	; 0x1818 <__divsf3x>
    1800:	46 c1       	rjmp	.+652    	; 0x1a8e <__fp_round>
    1802:	3e d1       	rcall	.+636    	; 0x1a80 <__fp_pscB>
    1804:	40 f0       	brcs	.+16     	; 0x1816 <__divsf3+0x18>
    1806:	35 d1       	rcall	.+618    	; 0x1a72 <__fp_pscA>
    1808:	30 f0       	brcs	.+12     	; 0x1816 <__divsf3+0x18>
    180a:	21 f4       	brne	.+8      	; 0x1814 <__divsf3+0x16>
    180c:	5f 3f       	cpi	r21, 0xFF	; 255
    180e:	19 f0       	breq	.+6      	; 0x1816 <__divsf3+0x18>
    1810:	fe c0       	rjmp	.+508    	; 0x1a0e <__fp_inf>
    1812:	51 11       	cpse	r21, r1
    1814:	87 c1       	rjmp	.+782    	; 0x1b24 <__fp_szero>
    1816:	2a c1       	rjmp	.+596    	; 0x1a6c <__fp_nan>

00001818 <__divsf3x>:
    1818:	4b d1       	rcall	.+662    	; 0x1ab0 <__fp_split3>
    181a:	98 f3       	brcs	.-26     	; 0x1802 <__divsf3+0x4>

0000181c <__divsf3_pse>:
    181c:	99 23       	and	r25, r25
    181e:	c9 f3       	breq	.-14     	; 0x1812 <__divsf3+0x14>
    1820:	55 23       	and	r21, r21
    1822:	b1 f3       	breq	.-20     	; 0x1810 <__divsf3+0x12>
    1824:	95 1b       	sub	r25, r21
    1826:	55 0b       	sbc	r21, r21
    1828:	bb 27       	eor	r27, r27
    182a:	aa 27       	eor	r26, r26
    182c:	62 17       	cp	r22, r18
    182e:	73 07       	cpc	r23, r19
    1830:	84 07       	cpc	r24, r20
    1832:	38 f0       	brcs	.+14     	; 0x1842 <__divsf3_pse+0x26>
    1834:	9f 5f       	subi	r25, 0xFF	; 255
    1836:	5f 4f       	sbci	r21, 0xFF	; 255
    1838:	22 0f       	add	r18, r18
    183a:	33 1f       	adc	r19, r19
    183c:	44 1f       	adc	r20, r20
    183e:	aa 1f       	adc	r26, r26
    1840:	a9 f3       	breq	.-22     	; 0x182c <__divsf3_pse+0x10>
    1842:	33 d0       	rcall	.+102    	; 0x18aa <__divsf3_pse+0x8e>
    1844:	0e 2e       	mov	r0, r30
    1846:	3a f0       	brmi	.+14     	; 0x1856 <__divsf3_pse+0x3a>
    1848:	e0 e8       	ldi	r30, 0x80	; 128
    184a:	30 d0       	rcall	.+96     	; 0x18ac <__divsf3_pse+0x90>
    184c:	91 50       	subi	r25, 0x01	; 1
    184e:	50 40       	sbci	r21, 0x00	; 0
    1850:	e6 95       	lsr	r30
    1852:	00 1c       	adc	r0, r0
    1854:	ca f7       	brpl	.-14     	; 0x1848 <__divsf3_pse+0x2c>
    1856:	29 d0       	rcall	.+82     	; 0x18aa <__divsf3_pse+0x8e>
    1858:	fe 2f       	mov	r31, r30
    185a:	27 d0       	rcall	.+78     	; 0x18aa <__divsf3_pse+0x8e>
    185c:	66 0f       	add	r22, r22
    185e:	77 1f       	adc	r23, r23
    1860:	88 1f       	adc	r24, r24
    1862:	bb 1f       	adc	r27, r27
    1864:	26 17       	cp	r18, r22
    1866:	37 07       	cpc	r19, r23
    1868:	48 07       	cpc	r20, r24
    186a:	ab 07       	cpc	r26, r27
    186c:	b0 e8       	ldi	r27, 0x80	; 128
    186e:	09 f0       	breq	.+2      	; 0x1872 <__divsf3_pse+0x56>
    1870:	bb 0b       	sbc	r27, r27
    1872:	80 2d       	mov	r24, r0
    1874:	bf 01       	movw	r22, r30
    1876:	ff 27       	eor	r31, r31
    1878:	93 58       	subi	r25, 0x83	; 131
    187a:	5f 4f       	sbci	r21, 0xFF	; 255
    187c:	2a f0       	brmi	.+10     	; 0x1888 <__divsf3_pse+0x6c>
    187e:	9e 3f       	cpi	r25, 0xFE	; 254
    1880:	51 05       	cpc	r21, r1
    1882:	68 f0       	brcs	.+26     	; 0x189e <__divsf3_pse+0x82>
    1884:	c4 c0       	rjmp	.+392    	; 0x1a0e <__fp_inf>
    1886:	4e c1       	rjmp	.+668    	; 0x1b24 <__fp_szero>
    1888:	5f 3f       	cpi	r21, 0xFF	; 255
    188a:	ec f3       	brlt	.-6      	; 0x1886 <__divsf3_pse+0x6a>
    188c:	98 3e       	cpi	r25, 0xE8	; 232
    188e:	dc f3       	brlt	.-10     	; 0x1886 <__divsf3_pse+0x6a>
    1890:	86 95       	lsr	r24
    1892:	77 95       	ror	r23
    1894:	67 95       	ror	r22
    1896:	b7 95       	ror	r27
    1898:	f7 95       	ror	r31
    189a:	9f 5f       	subi	r25, 0xFF	; 255
    189c:	c9 f7       	brne	.-14     	; 0x1890 <__divsf3_pse+0x74>
    189e:	88 0f       	add	r24, r24
    18a0:	91 1d       	adc	r25, r1
    18a2:	96 95       	lsr	r25
    18a4:	87 95       	ror	r24
    18a6:	97 f9       	bld	r25, 7
    18a8:	08 95       	ret
    18aa:	e1 e0       	ldi	r30, 0x01	; 1
    18ac:	66 0f       	add	r22, r22
    18ae:	77 1f       	adc	r23, r23
    18b0:	88 1f       	adc	r24, r24
    18b2:	bb 1f       	adc	r27, r27
    18b4:	62 17       	cp	r22, r18
    18b6:	73 07       	cpc	r23, r19
    18b8:	84 07       	cpc	r24, r20
    18ba:	ba 07       	cpc	r27, r26
    18bc:	20 f0       	brcs	.+8      	; 0x18c6 <__divsf3_pse+0xaa>
    18be:	62 1b       	sub	r22, r18
    18c0:	73 0b       	sbc	r23, r19
    18c2:	84 0b       	sbc	r24, r20
    18c4:	ba 0b       	sbc	r27, r26
    18c6:	ee 1f       	adc	r30, r30
    18c8:	88 f7       	brcc	.-30     	; 0x18ac <__divsf3_pse+0x90>
    18ca:	e0 95       	com	r30
    18cc:	08 95       	ret

000018ce <__fixunssfsi>:
    18ce:	f8 d0       	rcall	.+496    	; 0x1ac0 <__fp_splitA>
    18d0:	88 f0       	brcs	.+34     	; 0x18f4 <__fixunssfsi+0x26>
    18d2:	9f 57       	subi	r25, 0x7F	; 127
    18d4:	90 f0       	brcs	.+36     	; 0x18fa <__fixunssfsi+0x2c>
    18d6:	b9 2f       	mov	r27, r25
    18d8:	99 27       	eor	r25, r25
    18da:	b7 51       	subi	r27, 0x17	; 23
    18dc:	a0 f0       	brcs	.+40     	; 0x1906 <__fixunssfsi+0x38>
    18de:	d1 f0       	breq	.+52     	; 0x1914 <__fixunssfsi+0x46>
    18e0:	66 0f       	add	r22, r22
    18e2:	77 1f       	adc	r23, r23
    18e4:	88 1f       	adc	r24, r24
    18e6:	99 1f       	adc	r25, r25
    18e8:	1a f0       	brmi	.+6      	; 0x18f0 <__fixunssfsi+0x22>
    18ea:	ba 95       	dec	r27
    18ec:	c9 f7       	brne	.-14     	; 0x18e0 <__fixunssfsi+0x12>
    18ee:	12 c0       	rjmp	.+36     	; 0x1914 <__fixunssfsi+0x46>
    18f0:	b1 30       	cpi	r27, 0x01	; 1
    18f2:	81 f0       	breq	.+32     	; 0x1914 <__fixunssfsi+0x46>
    18f4:	16 d1       	rcall	.+556    	; 0x1b22 <__fp_zero>
    18f6:	b1 e0       	ldi	r27, 0x01	; 1
    18f8:	08 95       	ret
    18fa:	13 c1       	rjmp	.+550    	; 0x1b22 <__fp_zero>
    18fc:	67 2f       	mov	r22, r23
    18fe:	78 2f       	mov	r23, r24
    1900:	88 27       	eor	r24, r24
    1902:	b8 5f       	subi	r27, 0xF8	; 248
    1904:	39 f0       	breq	.+14     	; 0x1914 <__fixunssfsi+0x46>
    1906:	b9 3f       	cpi	r27, 0xF9	; 249
    1908:	cc f3       	brlt	.-14     	; 0x18fc <__fixunssfsi+0x2e>
    190a:	86 95       	lsr	r24
    190c:	77 95       	ror	r23
    190e:	67 95       	ror	r22
    1910:	b3 95       	inc	r27
    1912:	d9 f7       	brne	.-10     	; 0x190a <__fixunssfsi+0x3c>
    1914:	3e f4       	brtc	.+14     	; 0x1924 <__fixunssfsi+0x56>
    1916:	90 95       	com	r25
    1918:	80 95       	com	r24
    191a:	70 95       	com	r23
    191c:	61 95       	neg	r22
    191e:	7f 4f       	sbci	r23, 0xFF	; 255
    1920:	8f 4f       	sbci	r24, 0xFF	; 255
    1922:	9f 4f       	sbci	r25, 0xFF	; 255
    1924:	08 95       	ret

00001926 <__floatunsisf>:
    1926:	e8 94       	clt
    1928:	09 c0       	rjmp	.+18     	; 0x193c <__floatsisf+0x12>

0000192a <__floatsisf>:
    192a:	97 fb       	bst	r25, 7
    192c:	3e f4       	brtc	.+14     	; 0x193c <__floatsisf+0x12>
    192e:	90 95       	com	r25
    1930:	80 95       	com	r24
    1932:	70 95       	com	r23
    1934:	61 95       	neg	r22
    1936:	7f 4f       	sbci	r23, 0xFF	; 255
    1938:	8f 4f       	sbci	r24, 0xFF	; 255
    193a:	9f 4f       	sbci	r25, 0xFF	; 255
    193c:	99 23       	and	r25, r25
    193e:	a9 f0       	breq	.+42     	; 0x196a <__floatsisf+0x40>
    1940:	f9 2f       	mov	r31, r25
    1942:	96 e9       	ldi	r25, 0x96	; 150
    1944:	bb 27       	eor	r27, r27
    1946:	93 95       	inc	r25
    1948:	f6 95       	lsr	r31
    194a:	87 95       	ror	r24
    194c:	77 95       	ror	r23
    194e:	67 95       	ror	r22
    1950:	b7 95       	ror	r27
    1952:	f1 11       	cpse	r31, r1
    1954:	f8 cf       	rjmp	.-16     	; 0x1946 <__floatsisf+0x1c>
    1956:	fa f4       	brpl	.+62     	; 0x1996 <__floatsisf+0x6c>
    1958:	bb 0f       	add	r27, r27
    195a:	11 f4       	brne	.+4      	; 0x1960 <__floatsisf+0x36>
    195c:	60 ff       	sbrs	r22, 0
    195e:	1b c0       	rjmp	.+54     	; 0x1996 <__floatsisf+0x6c>
    1960:	6f 5f       	subi	r22, 0xFF	; 255
    1962:	7f 4f       	sbci	r23, 0xFF	; 255
    1964:	8f 4f       	sbci	r24, 0xFF	; 255
    1966:	9f 4f       	sbci	r25, 0xFF	; 255
    1968:	16 c0       	rjmp	.+44     	; 0x1996 <__floatsisf+0x6c>
    196a:	88 23       	and	r24, r24
    196c:	11 f0       	breq	.+4      	; 0x1972 <__floatsisf+0x48>
    196e:	96 e9       	ldi	r25, 0x96	; 150
    1970:	11 c0       	rjmp	.+34     	; 0x1994 <__floatsisf+0x6a>
    1972:	77 23       	and	r23, r23
    1974:	21 f0       	breq	.+8      	; 0x197e <__floatsisf+0x54>
    1976:	9e e8       	ldi	r25, 0x8E	; 142
    1978:	87 2f       	mov	r24, r23
    197a:	76 2f       	mov	r23, r22
    197c:	05 c0       	rjmp	.+10     	; 0x1988 <__floatsisf+0x5e>
    197e:	66 23       	and	r22, r22
    1980:	71 f0       	breq	.+28     	; 0x199e <__floatsisf+0x74>
    1982:	96 e8       	ldi	r25, 0x86	; 134
    1984:	86 2f       	mov	r24, r22
    1986:	70 e0       	ldi	r23, 0x00	; 0
    1988:	60 e0       	ldi	r22, 0x00	; 0
    198a:	2a f0       	brmi	.+10     	; 0x1996 <__floatsisf+0x6c>
    198c:	9a 95       	dec	r25
    198e:	66 0f       	add	r22, r22
    1990:	77 1f       	adc	r23, r23
    1992:	88 1f       	adc	r24, r24
    1994:	da f7       	brpl	.-10     	; 0x198c <__floatsisf+0x62>
    1996:	88 0f       	add	r24, r24
    1998:	96 95       	lsr	r25
    199a:	87 95       	ror	r24
    199c:	97 f9       	bld	r25, 7
    199e:	08 95       	ret

000019a0 <floor>:
    19a0:	a9 d0       	rcall	.+338    	; 0x1af4 <__fp_trunc>
    19a2:	80 f0       	brcs	.+32     	; 0x19c4 <floor+0x24>
    19a4:	9f 37       	cpi	r25, 0x7F	; 127
    19a6:	40 f4       	brcc	.+16     	; 0x19b8 <floor+0x18>
    19a8:	91 11       	cpse	r25, r1
    19aa:	0e f0       	brts	.+2      	; 0x19ae <floor+0xe>
    19ac:	bb c0       	rjmp	.+374    	; 0x1b24 <__fp_szero>
    19ae:	60 e0       	ldi	r22, 0x00	; 0
    19b0:	70 e0       	ldi	r23, 0x00	; 0
    19b2:	80 e8       	ldi	r24, 0x80	; 128
    19b4:	9f eb       	ldi	r25, 0xBF	; 191
    19b6:	08 95       	ret
    19b8:	26 f4       	brtc	.+8      	; 0x19c2 <floor+0x22>
    19ba:	1b 16       	cp	r1, r27
    19bc:	61 1d       	adc	r22, r1
    19be:	71 1d       	adc	r23, r1
    19c0:	81 1d       	adc	r24, r1
    19c2:	2b c0       	rjmp	.+86     	; 0x1a1a <__fp_mintl>
    19c4:	45 c0       	rjmp	.+138    	; 0x1a50 <__fp_mpack>

000019c6 <__fp_cmp>:
    19c6:	99 0f       	add	r25, r25
    19c8:	00 08       	sbc	r0, r0
    19ca:	55 0f       	add	r21, r21
    19cc:	aa 0b       	sbc	r26, r26
    19ce:	e0 e8       	ldi	r30, 0x80	; 128
    19d0:	fe ef       	ldi	r31, 0xFE	; 254
    19d2:	16 16       	cp	r1, r22
    19d4:	17 06       	cpc	r1, r23
    19d6:	e8 07       	cpc	r30, r24
    19d8:	f9 07       	cpc	r31, r25
    19da:	c0 f0       	brcs	.+48     	; 0x1a0c <__fp_cmp+0x46>
    19dc:	12 16       	cp	r1, r18
    19de:	13 06       	cpc	r1, r19
    19e0:	e4 07       	cpc	r30, r20
    19e2:	f5 07       	cpc	r31, r21
    19e4:	98 f0       	brcs	.+38     	; 0x1a0c <__fp_cmp+0x46>
    19e6:	62 1b       	sub	r22, r18
    19e8:	73 0b       	sbc	r23, r19
    19ea:	84 0b       	sbc	r24, r20
    19ec:	95 0b       	sbc	r25, r21
    19ee:	39 f4       	brne	.+14     	; 0x19fe <__fp_cmp+0x38>
    19f0:	0a 26       	eor	r0, r26
    19f2:	61 f0       	breq	.+24     	; 0x1a0c <__fp_cmp+0x46>
    19f4:	23 2b       	or	r18, r19
    19f6:	24 2b       	or	r18, r20
    19f8:	25 2b       	or	r18, r21
    19fa:	21 f4       	brne	.+8      	; 0x1a04 <__fp_cmp+0x3e>
    19fc:	08 95       	ret
    19fe:	0a 26       	eor	r0, r26
    1a00:	09 f4       	brne	.+2      	; 0x1a04 <__fp_cmp+0x3e>
    1a02:	a1 40       	sbci	r26, 0x01	; 1
    1a04:	a6 95       	lsr	r26
    1a06:	8f ef       	ldi	r24, 0xFF	; 255
    1a08:	81 1d       	adc	r24, r1
    1a0a:	81 1d       	adc	r24, r1
    1a0c:	08 95       	ret

00001a0e <__fp_inf>:
    1a0e:	97 f9       	bld	r25, 7
    1a10:	9f 67       	ori	r25, 0x7F	; 127
    1a12:	80 e8       	ldi	r24, 0x80	; 128
    1a14:	70 e0       	ldi	r23, 0x00	; 0
    1a16:	60 e0       	ldi	r22, 0x00	; 0
    1a18:	08 95       	ret

00001a1a <__fp_mintl>:
    1a1a:	88 23       	and	r24, r24
    1a1c:	71 f4       	brne	.+28     	; 0x1a3a <__fp_mintl+0x20>
    1a1e:	77 23       	and	r23, r23
    1a20:	21 f0       	breq	.+8      	; 0x1a2a <__fp_mintl+0x10>
    1a22:	98 50       	subi	r25, 0x08	; 8
    1a24:	87 2b       	or	r24, r23
    1a26:	76 2f       	mov	r23, r22
    1a28:	07 c0       	rjmp	.+14     	; 0x1a38 <__fp_mintl+0x1e>
    1a2a:	66 23       	and	r22, r22
    1a2c:	11 f4       	brne	.+4      	; 0x1a32 <__fp_mintl+0x18>
    1a2e:	99 27       	eor	r25, r25
    1a30:	0d c0       	rjmp	.+26     	; 0x1a4c <__fp_mintl+0x32>
    1a32:	90 51       	subi	r25, 0x10	; 16
    1a34:	86 2b       	or	r24, r22
    1a36:	70 e0       	ldi	r23, 0x00	; 0
    1a38:	60 e0       	ldi	r22, 0x00	; 0
    1a3a:	2a f0       	brmi	.+10     	; 0x1a46 <__fp_mintl+0x2c>
    1a3c:	9a 95       	dec	r25
    1a3e:	66 0f       	add	r22, r22
    1a40:	77 1f       	adc	r23, r23
    1a42:	88 1f       	adc	r24, r24
    1a44:	da f7       	brpl	.-10     	; 0x1a3c <__fp_mintl+0x22>
    1a46:	88 0f       	add	r24, r24
    1a48:	96 95       	lsr	r25
    1a4a:	87 95       	ror	r24
    1a4c:	97 f9       	bld	r25, 7
    1a4e:	08 95       	ret

00001a50 <__fp_mpack>:
    1a50:	9f 3f       	cpi	r25, 0xFF	; 255
    1a52:	31 f0       	breq	.+12     	; 0x1a60 <__fp_mpack_finite+0xc>

00001a54 <__fp_mpack_finite>:
    1a54:	91 50       	subi	r25, 0x01	; 1
    1a56:	20 f4       	brcc	.+8      	; 0x1a60 <__fp_mpack_finite+0xc>
    1a58:	87 95       	ror	r24
    1a5a:	77 95       	ror	r23
    1a5c:	67 95       	ror	r22
    1a5e:	b7 95       	ror	r27
    1a60:	88 0f       	add	r24, r24
    1a62:	91 1d       	adc	r25, r1
    1a64:	96 95       	lsr	r25
    1a66:	87 95       	ror	r24
    1a68:	97 f9       	bld	r25, 7
    1a6a:	08 95       	ret

00001a6c <__fp_nan>:
    1a6c:	9f ef       	ldi	r25, 0xFF	; 255
    1a6e:	80 ec       	ldi	r24, 0xC0	; 192
    1a70:	08 95       	ret

00001a72 <__fp_pscA>:
    1a72:	00 24       	eor	r0, r0
    1a74:	0a 94       	dec	r0
    1a76:	16 16       	cp	r1, r22
    1a78:	17 06       	cpc	r1, r23
    1a7a:	18 06       	cpc	r1, r24
    1a7c:	09 06       	cpc	r0, r25
    1a7e:	08 95       	ret

00001a80 <__fp_pscB>:
    1a80:	00 24       	eor	r0, r0
    1a82:	0a 94       	dec	r0
    1a84:	12 16       	cp	r1, r18
    1a86:	13 06       	cpc	r1, r19
    1a88:	14 06       	cpc	r1, r20
    1a8a:	05 06       	cpc	r0, r21
    1a8c:	08 95       	ret

00001a8e <__fp_round>:
    1a8e:	09 2e       	mov	r0, r25
    1a90:	03 94       	inc	r0
    1a92:	00 0c       	add	r0, r0
    1a94:	11 f4       	brne	.+4      	; 0x1a9a <__fp_round+0xc>
    1a96:	88 23       	and	r24, r24
    1a98:	52 f0       	brmi	.+20     	; 0x1aae <__fp_round+0x20>
    1a9a:	bb 0f       	add	r27, r27
    1a9c:	40 f4       	brcc	.+16     	; 0x1aae <__fp_round+0x20>
    1a9e:	bf 2b       	or	r27, r31
    1aa0:	11 f4       	brne	.+4      	; 0x1aa6 <__fp_round+0x18>
    1aa2:	60 ff       	sbrs	r22, 0
    1aa4:	04 c0       	rjmp	.+8      	; 0x1aae <__fp_round+0x20>
    1aa6:	6f 5f       	subi	r22, 0xFF	; 255
    1aa8:	7f 4f       	sbci	r23, 0xFF	; 255
    1aaa:	8f 4f       	sbci	r24, 0xFF	; 255
    1aac:	9f 4f       	sbci	r25, 0xFF	; 255
    1aae:	08 95       	ret

00001ab0 <__fp_split3>:
    1ab0:	57 fd       	sbrc	r21, 7
    1ab2:	90 58       	subi	r25, 0x80	; 128
    1ab4:	44 0f       	add	r20, r20
    1ab6:	55 1f       	adc	r21, r21
    1ab8:	59 f0       	breq	.+22     	; 0x1ad0 <__fp_splitA+0x10>
    1aba:	5f 3f       	cpi	r21, 0xFF	; 255
    1abc:	71 f0       	breq	.+28     	; 0x1ada <__fp_splitA+0x1a>
    1abe:	47 95       	ror	r20

00001ac0 <__fp_splitA>:
    1ac0:	88 0f       	add	r24, r24
    1ac2:	97 fb       	bst	r25, 7
    1ac4:	99 1f       	adc	r25, r25
    1ac6:	61 f0       	breq	.+24     	; 0x1ae0 <__fp_splitA+0x20>
    1ac8:	9f 3f       	cpi	r25, 0xFF	; 255
    1aca:	79 f0       	breq	.+30     	; 0x1aea <__fp_splitA+0x2a>
    1acc:	87 95       	ror	r24
    1ace:	08 95       	ret
    1ad0:	12 16       	cp	r1, r18
    1ad2:	13 06       	cpc	r1, r19
    1ad4:	14 06       	cpc	r1, r20
    1ad6:	55 1f       	adc	r21, r21
    1ad8:	f2 cf       	rjmp	.-28     	; 0x1abe <__fp_split3+0xe>
    1ada:	46 95       	lsr	r20
    1adc:	f1 df       	rcall	.-30     	; 0x1ac0 <__fp_splitA>
    1ade:	08 c0       	rjmp	.+16     	; 0x1af0 <__fp_splitA+0x30>
    1ae0:	16 16       	cp	r1, r22
    1ae2:	17 06       	cpc	r1, r23
    1ae4:	18 06       	cpc	r1, r24
    1ae6:	99 1f       	adc	r25, r25
    1ae8:	f1 cf       	rjmp	.-30     	; 0x1acc <__fp_splitA+0xc>
    1aea:	86 95       	lsr	r24
    1aec:	71 05       	cpc	r23, r1
    1aee:	61 05       	cpc	r22, r1
    1af0:	08 94       	sec
    1af2:	08 95       	ret

00001af4 <__fp_trunc>:
    1af4:	e5 df       	rcall	.-54     	; 0x1ac0 <__fp_splitA>
    1af6:	a0 f0       	brcs	.+40     	; 0x1b20 <__fp_trunc+0x2c>
    1af8:	be e7       	ldi	r27, 0x7E	; 126
    1afa:	b9 17       	cp	r27, r25
    1afc:	88 f4       	brcc	.+34     	; 0x1b20 <__fp_trunc+0x2c>
    1afe:	bb 27       	eor	r27, r27
    1b00:	9f 38       	cpi	r25, 0x8F	; 143
    1b02:	60 f4       	brcc	.+24     	; 0x1b1c <__fp_trunc+0x28>
    1b04:	16 16       	cp	r1, r22
    1b06:	b1 1d       	adc	r27, r1
    1b08:	67 2f       	mov	r22, r23
    1b0a:	78 2f       	mov	r23, r24
    1b0c:	88 27       	eor	r24, r24
    1b0e:	98 5f       	subi	r25, 0xF8	; 248
    1b10:	f7 cf       	rjmp	.-18     	; 0x1b00 <__fp_trunc+0xc>
    1b12:	86 95       	lsr	r24
    1b14:	77 95       	ror	r23
    1b16:	67 95       	ror	r22
    1b18:	b1 1d       	adc	r27, r1
    1b1a:	93 95       	inc	r25
    1b1c:	96 39       	cpi	r25, 0x96	; 150
    1b1e:	c8 f3       	brcs	.-14     	; 0x1b12 <__fp_trunc+0x1e>
    1b20:	08 95       	ret

00001b22 <__fp_zero>:
    1b22:	e8 94       	clt

00001b24 <__fp_szero>:
    1b24:	bb 27       	eor	r27, r27
    1b26:	66 27       	eor	r22, r22
    1b28:	77 27       	eor	r23, r23
    1b2a:	cb 01       	movw	r24, r22
    1b2c:	97 f9       	bld	r25, 7
    1b2e:	08 95       	ret

00001b30 <__mulsf3>:
    1b30:	0b d0       	rcall	.+22     	; 0x1b48 <__mulsf3x>
    1b32:	ad cf       	rjmp	.-166    	; 0x1a8e <__fp_round>
    1b34:	9e df       	rcall	.-196    	; 0x1a72 <__fp_pscA>
    1b36:	28 f0       	brcs	.+10     	; 0x1b42 <__mulsf3+0x12>
    1b38:	a3 df       	rcall	.-186    	; 0x1a80 <__fp_pscB>
    1b3a:	18 f0       	brcs	.+6      	; 0x1b42 <__mulsf3+0x12>
    1b3c:	95 23       	and	r25, r21
    1b3e:	09 f0       	breq	.+2      	; 0x1b42 <__mulsf3+0x12>
    1b40:	66 cf       	rjmp	.-308    	; 0x1a0e <__fp_inf>
    1b42:	94 cf       	rjmp	.-216    	; 0x1a6c <__fp_nan>
    1b44:	11 24       	eor	r1, r1
    1b46:	ee cf       	rjmp	.-36     	; 0x1b24 <__fp_szero>

00001b48 <__mulsf3x>:
    1b48:	b3 df       	rcall	.-154    	; 0x1ab0 <__fp_split3>
    1b4a:	a0 f3       	brcs	.-24     	; 0x1b34 <__mulsf3+0x4>

00001b4c <__mulsf3_pse>:
    1b4c:	95 9f       	mul	r25, r21
    1b4e:	d1 f3       	breq	.-12     	; 0x1b44 <__mulsf3+0x14>
    1b50:	95 0f       	add	r25, r21
    1b52:	50 e0       	ldi	r21, 0x00	; 0
    1b54:	55 1f       	adc	r21, r21
    1b56:	62 9f       	mul	r22, r18
    1b58:	f0 01       	movw	r30, r0
    1b5a:	72 9f       	mul	r23, r18
    1b5c:	bb 27       	eor	r27, r27
    1b5e:	f0 0d       	add	r31, r0
    1b60:	b1 1d       	adc	r27, r1
    1b62:	63 9f       	mul	r22, r19
    1b64:	aa 27       	eor	r26, r26
    1b66:	f0 0d       	add	r31, r0
    1b68:	b1 1d       	adc	r27, r1
    1b6a:	aa 1f       	adc	r26, r26
    1b6c:	64 9f       	mul	r22, r20
    1b6e:	66 27       	eor	r22, r22
    1b70:	b0 0d       	add	r27, r0
    1b72:	a1 1d       	adc	r26, r1
    1b74:	66 1f       	adc	r22, r22
    1b76:	82 9f       	mul	r24, r18
    1b78:	22 27       	eor	r18, r18
    1b7a:	b0 0d       	add	r27, r0
    1b7c:	a1 1d       	adc	r26, r1
    1b7e:	62 1f       	adc	r22, r18
    1b80:	73 9f       	mul	r23, r19
    1b82:	b0 0d       	add	r27, r0
    1b84:	a1 1d       	adc	r26, r1
    1b86:	62 1f       	adc	r22, r18
    1b88:	83 9f       	mul	r24, r19
    1b8a:	a0 0d       	add	r26, r0
    1b8c:	61 1d       	adc	r22, r1
    1b8e:	22 1f       	adc	r18, r18
    1b90:	74 9f       	mul	r23, r20
    1b92:	33 27       	eor	r19, r19
    1b94:	a0 0d       	add	r26, r0
    1b96:	61 1d       	adc	r22, r1
    1b98:	23 1f       	adc	r18, r19
    1b9a:	84 9f       	mul	r24, r20
    1b9c:	60 0d       	add	r22, r0
    1b9e:	21 1d       	adc	r18, r1
    1ba0:	82 2f       	mov	r24, r18
    1ba2:	76 2f       	mov	r23, r22
    1ba4:	6a 2f       	mov	r22, r26
    1ba6:	11 24       	eor	r1, r1
    1ba8:	9f 57       	subi	r25, 0x7F	; 127
    1baa:	50 40       	sbci	r21, 0x00	; 0
    1bac:	8a f0       	brmi	.+34     	; 0x1bd0 <__mulsf3_pse+0x84>
    1bae:	e1 f0       	breq	.+56     	; 0x1be8 <__mulsf3_pse+0x9c>
    1bb0:	88 23       	and	r24, r24
    1bb2:	4a f0       	brmi	.+18     	; 0x1bc6 <__mulsf3_pse+0x7a>
    1bb4:	ee 0f       	add	r30, r30
    1bb6:	ff 1f       	adc	r31, r31
    1bb8:	bb 1f       	adc	r27, r27
    1bba:	66 1f       	adc	r22, r22
    1bbc:	77 1f       	adc	r23, r23
    1bbe:	88 1f       	adc	r24, r24
    1bc0:	91 50       	subi	r25, 0x01	; 1
    1bc2:	50 40       	sbci	r21, 0x00	; 0
    1bc4:	a9 f7       	brne	.-22     	; 0x1bb0 <__mulsf3_pse+0x64>
    1bc6:	9e 3f       	cpi	r25, 0xFE	; 254
    1bc8:	51 05       	cpc	r21, r1
    1bca:	70 f0       	brcs	.+28     	; 0x1be8 <__mulsf3_pse+0x9c>
    1bcc:	20 cf       	rjmp	.-448    	; 0x1a0e <__fp_inf>
    1bce:	aa cf       	rjmp	.-172    	; 0x1b24 <__fp_szero>
    1bd0:	5f 3f       	cpi	r21, 0xFF	; 255
    1bd2:	ec f3       	brlt	.-6      	; 0x1bce <__mulsf3_pse+0x82>
    1bd4:	98 3e       	cpi	r25, 0xE8	; 232
    1bd6:	dc f3       	brlt	.-10     	; 0x1bce <__mulsf3_pse+0x82>
    1bd8:	86 95       	lsr	r24
    1bda:	77 95       	ror	r23
    1bdc:	67 95       	ror	r22
    1bde:	b7 95       	ror	r27
    1be0:	f7 95       	ror	r31
    1be2:	e7 95       	ror	r30
    1be4:	9f 5f       	subi	r25, 0xFF	; 255
    1be6:	c1 f7       	brne	.-16     	; 0x1bd8 <__mulsf3_pse+0x8c>
    1be8:	fe 2b       	or	r31, r30
    1bea:	88 0f       	add	r24, r24
    1bec:	91 1d       	adc	r25, r1
    1bee:	96 95       	lsr	r25
    1bf0:	87 95       	ror	r24
    1bf2:	97 f9       	bld	r25, 7
    1bf4:	08 95       	ret

00001bf6 <vfprintf>:
    1bf6:	a2 e1       	ldi	r26, 0x12	; 18
    1bf8:	b0 e0       	ldi	r27, 0x00	; 0
    1bfa:	e1 e0       	ldi	r30, 0x01	; 1
    1bfc:	fe e0       	ldi	r31, 0x0E	; 14
    1bfe:	0c 94 7d 11 	jmp	0x22fa	; 0x22fa <__prologue_saves__>
    1c02:	7c 01       	movw	r14, r24
    1c04:	1b 01       	movw	r2, r22
    1c06:	6a 01       	movw	r12, r20
    1c08:	fc 01       	movw	r30, r24
    1c0a:	17 82       	std	Z+7, r1	; 0x07
    1c0c:	16 82       	std	Z+6, r1	; 0x06
    1c0e:	83 81       	ldd	r24, Z+3	; 0x03
    1c10:	81 fd       	sbrc	r24, 1
    1c12:	03 c0       	rjmp	.+6      	; 0x1c1a <vfprintf+0x24>
    1c14:	6b c3       	rjmp	.+1750   	; 0x22ec <vfprintf+0x6f6>
    1c16:	65 01       	movw	r12, r10
    1c18:	05 c0       	rjmp	.+10     	; 0x1c24 <vfprintf+0x2e>
    1c1a:	88 24       	eor	r8, r8
    1c1c:	83 94       	inc	r8
    1c1e:	91 2c       	mov	r9, r1
    1c20:	8c 0e       	add	r8, r28
    1c22:	9d 1e       	adc	r9, r29
    1c24:	f7 01       	movw	r30, r14
    1c26:	93 81       	ldd	r25, Z+3	; 0x03
    1c28:	f1 01       	movw	r30, r2
    1c2a:	93 fd       	sbrc	r25, 3
    1c2c:	85 91       	lpm	r24, Z+
    1c2e:	93 ff       	sbrs	r25, 3
    1c30:	81 91       	ld	r24, Z+
    1c32:	1f 01       	movw	r2, r30
    1c34:	88 23       	and	r24, r24
    1c36:	09 f4       	brne	.+2      	; 0x1c3a <vfprintf+0x44>
    1c38:	55 c3       	rjmp	.+1706   	; 0x22e4 <vfprintf+0x6ee>
    1c3a:	85 32       	cpi	r24, 0x25	; 37
    1c3c:	39 f4       	brne	.+14     	; 0x1c4c <vfprintf+0x56>
    1c3e:	93 fd       	sbrc	r25, 3
    1c40:	85 91       	lpm	r24, Z+
    1c42:	93 ff       	sbrs	r25, 3
    1c44:	81 91       	ld	r24, Z+
    1c46:	1f 01       	movw	r2, r30
    1c48:	85 32       	cpi	r24, 0x25	; 37
    1c4a:	31 f4       	brne	.+12     	; 0x1c58 <vfprintf+0x62>
    1c4c:	b7 01       	movw	r22, r14
    1c4e:	90 e0       	ldi	r25, 0x00	; 0
    1c50:	0e 94 ca 12 	call	0x2594	; 0x2594 <fputc>
    1c54:	56 01       	movw	r10, r12
    1c56:	df cf       	rjmp	.-66     	; 0x1c16 <vfprintf+0x20>
    1c58:	71 2c       	mov	r7, r1
    1c5a:	61 2c       	mov	r6, r1
    1c5c:	20 e0       	ldi	r18, 0x00	; 0
    1c5e:	20 32       	cpi	r18, 0x20	; 32
    1c60:	a8 f4       	brcc	.+42     	; 0x1c8c <vfprintf+0x96>
    1c62:	8b 32       	cpi	r24, 0x2B	; 43
    1c64:	61 f0       	breq	.+24     	; 0x1c7e <vfprintf+0x88>
    1c66:	28 f4       	brcc	.+10     	; 0x1c72 <vfprintf+0x7c>
    1c68:	80 32       	cpi	r24, 0x20	; 32
    1c6a:	51 f0       	breq	.+20     	; 0x1c80 <vfprintf+0x8a>
    1c6c:	83 32       	cpi	r24, 0x23	; 35
    1c6e:	71 f4       	brne	.+28     	; 0x1c8c <vfprintf+0x96>
    1c70:	0b c0       	rjmp	.+22     	; 0x1c88 <vfprintf+0x92>
    1c72:	8d 32       	cpi	r24, 0x2D	; 45
    1c74:	39 f0       	breq	.+14     	; 0x1c84 <vfprintf+0x8e>
    1c76:	80 33       	cpi	r24, 0x30	; 48
    1c78:	49 f4       	brne	.+18     	; 0x1c8c <vfprintf+0x96>
    1c7a:	21 60       	ori	r18, 0x01	; 1
    1c7c:	28 c0       	rjmp	.+80     	; 0x1cce <vfprintf+0xd8>
    1c7e:	22 60       	ori	r18, 0x02	; 2
    1c80:	24 60       	ori	r18, 0x04	; 4
    1c82:	25 c0       	rjmp	.+74     	; 0x1cce <vfprintf+0xd8>
    1c84:	28 60       	ori	r18, 0x08	; 8
    1c86:	23 c0       	rjmp	.+70     	; 0x1cce <vfprintf+0xd8>
    1c88:	20 61       	ori	r18, 0x10	; 16
    1c8a:	21 c0       	rjmp	.+66     	; 0x1cce <vfprintf+0xd8>
    1c8c:	27 fd       	sbrc	r18, 7
    1c8e:	27 c0       	rjmp	.+78     	; 0x1cde <vfprintf+0xe8>
    1c90:	38 2f       	mov	r19, r24
    1c92:	30 53       	subi	r19, 0x30	; 48
    1c94:	3a 30       	cpi	r19, 0x0A	; 10
    1c96:	78 f4       	brcc	.+30     	; 0x1cb6 <vfprintf+0xc0>
    1c98:	26 ff       	sbrs	r18, 6
    1c9a:	06 c0       	rjmp	.+12     	; 0x1ca8 <vfprintf+0xb2>
    1c9c:	fa e0       	ldi	r31, 0x0A	; 10
    1c9e:	7f 9e       	mul	r7, r31
    1ca0:	30 0d       	add	r19, r0
    1ca2:	11 24       	eor	r1, r1
    1ca4:	73 2e       	mov	r7, r19
    1ca6:	13 c0       	rjmp	.+38     	; 0x1cce <vfprintf+0xd8>
    1ca8:	4a e0       	ldi	r20, 0x0A	; 10
    1caa:	64 9e       	mul	r6, r20
    1cac:	30 0d       	add	r19, r0
    1cae:	11 24       	eor	r1, r1
    1cb0:	63 2e       	mov	r6, r19
    1cb2:	20 62       	ori	r18, 0x20	; 32
    1cb4:	0c c0       	rjmp	.+24     	; 0x1cce <vfprintf+0xd8>
    1cb6:	8e 32       	cpi	r24, 0x2E	; 46
    1cb8:	21 f4       	brne	.+8      	; 0x1cc2 <vfprintf+0xcc>
    1cba:	26 fd       	sbrc	r18, 6
    1cbc:	13 c3       	rjmp	.+1574   	; 0x22e4 <vfprintf+0x6ee>
    1cbe:	20 64       	ori	r18, 0x40	; 64
    1cc0:	06 c0       	rjmp	.+12     	; 0x1cce <vfprintf+0xd8>
    1cc2:	8c 36       	cpi	r24, 0x6C	; 108
    1cc4:	11 f4       	brne	.+4      	; 0x1cca <vfprintf+0xd4>
    1cc6:	20 68       	ori	r18, 0x80	; 128
    1cc8:	02 c0       	rjmp	.+4      	; 0x1cce <vfprintf+0xd8>
    1cca:	88 36       	cpi	r24, 0x68	; 104
    1ccc:	41 f4       	brne	.+16     	; 0x1cde <vfprintf+0xe8>
    1cce:	f1 01       	movw	r30, r2
    1cd0:	93 fd       	sbrc	r25, 3
    1cd2:	85 91       	lpm	r24, Z+
    1cd4:	93 ff       	sbrs	r25, 3
    1cd6:	81 91       	ld	r24, Z+
    1cd8:	1f 01       	movw	r2, r30
    1cda:	81 11       	cpse	r24, r1
    1cdc:	c0 cf       	rjmp	.-128    	; 0x1c5e <vfprintf+0x68>
    1cde:	98 2f       	mov	r25, r24
    1ce0:	95 54       	subi	r25, 0x45	; 69
    1ce2:	93 30       	cpi	r25, 0x03	; 3
    1ce4:	18 f4       	brcc	.+6      	; 0x1cec <vfprintf+0xf6>
    1ce6:	20 61       	ori	r18, 0x10	; 16
    1ce8:	80 5e       	subi	r24, 0xE0	; 224
    1cea:	06 c0       	rjmp	.+12     	; 0x1cf8 <vfprintf+0x102>
    1cec:	98 2f       	mov	r25, r24
    1cee:	95 56       	subi	r25, 0x65	; 101
    1cf0:	93 30       	cpi	r25, 0x03	; 3
    1cf2:	08 f0       	brcs	.+2      	; 0x1cf6 <vfprintf+0x100>
    1cf4:	a4 c1       	rjmp	.+840    	; 0x203e <vfprintf+0x448>
    1cf6:	2f 7e       	andi	r18, 0xEF	; 239
    1cf8:	26 fd       	sbrc	r18, 6
    1cfa:	02 c0       	rjmp	.+4      	; 0x1d00 <vfprintf+0x10a>
    1cfc:	16 e0       	ldi	r17, 0x06	; 6
    1cfe:	71 2e       	mov	r7, r17
    1d00:	bf e3       	ldi	r27, 0x3F	; 63
    1d02:	5b 2e       	mov	r5, r27
    1d04:	52 22       	and	r5, r18
    1d06:	85 36       	cpi	r24, 0x65	; 101
    1d08:	19 f4       	brne	.+6      	; 0x1d10 <vfprintf+0x11a>
    1d0a:	f0 e4       	ldi	r31, 0x40	; 64
    1d0c:	5f 2a       	or	r5, r31
    1d0e:	07 c0       	rjmp	.+14     	; 0x1d1e <vfprintf+0x128>
    1d10:	86 36       	cpi	r24, 0x66	; 102
    1d12:	19 f4       	brne	.+6      	; 0x1d1a <vfprintf+0x124>
    1d14:	40 e8       	ldi	r20, 0x80	; 128
    1d16:	54 2a       	or	r5, r20
    1d18:	02 c0       	rjmp	.+4      	; 0x1d1e <vfprintf+0x128>
    1d1a:	71 10       	cpse	r7, r1
    1d1c:	7a 94       	dec	r7
    1d1e:	57 fe       	sbrs	r5, 7
    1d20:	07 c0       	rjmp	.+14     	; 0x1d30 <vfprintf+0x13a>
    1d22:	5b e3       	ldi	r21, 0x3B	; 59
    1d24:	57 15       	cp	r21, r7
    1d26:	48 f0       	brcs	.+18     	; 0x1d3a <vfprintf+0x144>
    1d28:	47 2c       	mov	r4, r7
    1d2a:	43 94       	inc	r4
    1d2c:	27 e0       	ldi	r18, 0x07	; 7
    1d2e:	0d c0       	rjmp	.+26     	; 0x1d4a <vfprintf+0x154>
    1d30:	87 e0       	ldi	r24, 0x07	; 7
    1d32:	87 15       	cp	r24, r7
    1d34:	30 f0       	brcs	.+12     	; 0x1d42 <vfprintf+0x14c>
    1d36:	27 2d       	mov	r18, r7
    1d38:	07 c0       	rjmp	.+14     	; 0x1d48 <vfprintf+0x152>
    1d3a:	27 e0       	ldi	r18, 0x07	; 7
    1d3c:	ac e3       	ldi	r26, 0x3C	; 60
    1d3e:	4a 2e       	mov	r4, r26
    1d40:	04 c0       	rjmp	.+8      	; 0x1d4a <vfprintf+0x154>
    1d42:	27 e0       	ldi	r18, 0x07	; 7
    1d44:	f7 e0       	ldi	r31, 0x07	; 7
    1d46:	7f 2e       	mov	r7, r31
    1d48:	41 2c       	mov	r4, r1
    1d4a:	56 01       	movw	r10, r12
    1d4c:	94 e0       	ldi	r25, 0x04	; 4
    1d4e:	a9 0e       	add	r10, r25
    1d50:	b1 1c       	adc	r11, r1
    1d52:	f6 01       	movw	r30, r12
    1d54:	60 81       	ld	r22, Z
    1d56:	71 81       	ldd	r23, Z+1	; 0x01
    1d58:	82 81       	ldd	r24, Z+2	; 0x02
    1d5a:	93 81       	ldd	r25, Z+3	; 0x03
    1d5c:	04 2d       	mov	r16, r4
    1d5e:	a4 01       	movw	r20, r8
    1d60:	0e 94 b4 11 	call	0x2368	; 0x2368 <__ftoa_engine>
    1d64:	8c 01       	movw	r16, r24
    1d66:	49 81       	ldd	r20, Y+1	; 0x01
    1d68:	4c 87       	std	Y+12, r20	; 0x0c
    1d6a:	40 ff       	sbrs	r20, 0
    1d6c:	02 c0       	rjmp	.+4      	; 0x1d72 <vfprintf+0x17c>
    1d6e:	43 ff       	sbrs	r20, 3
    1d70:	07 c0       	rjmp	.+14     	; 0x1d80 <vfprintf+0x18a>
    1d72:	51 fc       	sbrc	r5, 1
    1d74:	08 c0       	rjmp	.+16     	; 0x1d86 <vfprintf+0x190>
    1d76:	52 fe       	sbrs	r5, 2
    1d78:	09 c0       	rjmp	.+18     	; 0x1d8c <vfprintf+0x196>
    1d7a:	e0 e2       	ldi	r30, 0x20	; 32
    1d7c:	de 2e       	mov	r13, r30
    1d7e:	07 c0       	rjmp	.+14     	; 0x1d8e <vfprintf+0x198>
    1d80:	7d e2       	ldi	r23, 0x2D	; 45
    1d82:	d7 2e       	mov	r13, r23
    1d84:	04 c0       	rjmp	.+8      	; 0x1d8e <vfprintf+0x198>
    1d86:	6b e2       	ldi	r22, 0x2B	; 43
    1d88:	d6 2e       	mov	r13, r22
    1d8a:	01 c0       	rjmp	.+2      	; 0x1d8e <vfprintf+0x198>
    1d8c:	d1 2c       	mov	r13, r1
    1d8e:	8c 85       	ldd	r24, Y+12	; 0x0c
    1d90:	8c 70       	andi	r24, 0x0C	; 12
    1d92:	a1 f1       	breq	.+104    	; 0x1dfc <vfprintf+0x206>
    1d94:	dd 20       	and	r13, r13
    1d96:	11 f0       	breq	.+4      	; 0x1d9c <vfprintf+0x1a6>
    1d98:	84 e0       	ldi	r24, 0x04	; 4
    1d9a:	01 c0       	rjmp	.+2      	; 0x1d9e <vfprintf+0x1a8>
    1d9c:	83 e0       	ldi	r24, 0x03	; 3
    1d9e:	86 15       	cp	r24, r6
    1da0:	10 f0       	brcs	.+4      	; 0x1da6 <vfprintf+0x1b0>
    1da2:	61 2c       	mov	r6, r1
    1da4:	0b c0       	rjmp	.+22     	; 0x1dbc <vfprintf+0x1c6>
    1da6:	68 1a       	sub	r6, r24
    1da8:	53 fc       	sbrc	r5, 3
    1daa:	08 c0       	rjmp	.+16     	; 0x1dbc <vfprintf+0x1c6>
    1dac:	b7 01       	movw	r22, r14
    1dae:	80 e2       	ldi	r24, 0x20	; 32
    1db0:	90 e0       	ldi	r25, 0x00	; 0
    1db2:	0e 94 ca 12 	call	0x2594	; 0x2594 <fputc>
    1db6:	6a 94       	dec	r6
    1db8:	c9 f7       	brne	.-14     	; 0x1dac <vfprintf+0x1b6>
    1dba:	f3 cf       	rjmp	.-26     	; 0x1da2 <vfprintf+0x1ac>
    1dbc:	dd 20       	and	r13, r13
    1dbe:	29 f0       	breq	.+10     	; 0x1dca <vfprintf+0x1d4>
    1dc0:	b7 01       	movw	r22, r14
    1dc2:	8d 2d       	mov	r24, r13
    1dc4:	90 e0       	ldi	r25, 0x00	; 0
    1dc6:	0e 94 ca 12 	call	0x2594	; 0x2594 <fputc>
    1dca:	5c 85       	ldd	r21, Y+12	; 0x0c
    1dcc:	53 fd       	sbrc	r21, 3
    1dce:	03 c0       	rjmp	.+6      	; 0x1dd6 <vfprintf+0x1e0>
    1dd0:	0c e6       	ldi	r16, 0x6C	; 108
    1dd2:	10 e0       	ldi	r17, 0x00	; 0
    1dd4:	0c c0       	rjmp	.+24     	; 0x1dee <vfprintf+0x1f8>
    1dd6:	08 e6       	ldi	r16, 0x68	; 104
    1dd8:	10 e0       	ldi	r17, 0x00	; 0
    1dda:	09 c0       	rjmp	.+18     	; 0x1dee <vfprintf+0x1f8>
    1ddc:	51 10       	cpse	r5, r1
    1dde:	80 52       	subi	r24, 0x20	; 32
    1de0:	b7 01       	movw	r22, r14
    1de2:	90 e0       	ldi	r25, 0x00	; 0
    1de4:	0e 94 ca 12 	call	0x2594	; 0x2594 <fputc>
    1de8:	0f 5f       	subi	r16, 0xFF	; 255
    1dea:	1f 4f       	sbci	r17, 0xFF	; 255
    1dec:	02 c0       	rjmp	.+4      	; 0x1df2 <vfprintf+0x1fc>
    1dee:	80 e1       	ldi	r24, 0x10	; 16
    1df0:	58 22       	and	r5, r24
    1df2:	f8 01       	movw	r30, r16
    1df4:	84 91       	lpm	r24, Z
    1df6:	81 11       	cpse	r24, r1
    1df8:	f1 cf       	rjmp	.-30     	; 0x1ddc <vfprintf+0x1e6>
    1dfa:	71 c2       	rjmp	.+1250   	; 0x22de <vfprintf+0x6e8>
    1dfc:	57 fe       	sbrs	r5, 7
    1dfe:	0e c0       	rjmp	.+28     	; 0x1e1c <vfprintf+0x226>
    1e00:	40 0e       	add	r4, r16
    1e02:	4c 85       	ldd	r20, Y+12	; 0x0c
    1e04:	44 ff       	sbrs	r20, 4
    1e06:	04 c0       	rjmp	.+8      	; 0x1e10 <vfprintf+0x21a>
    1e08:	8a 81       	ldd	r24, Y+2	; 0x02
    1e0a:	81 33       	cpi	r24, 0x31	; 49
    1e0c:	09 f4       	brne	.+2      	; 0x1e10 <vfprintf+0x21a>
    1e0e:	4a 94       	dec	r4
    1e10:	14 14       	cp	r1, r4
    1e12:	4c f5       	brge	.+82     	; 0x1e66 <vfprintf+0x270>
    1e14:	58 e0       	ldi	r21, 0x08	; 8
    1e16:	54 15       	cp	r21, r4
    1e18:	48 f1       	brcs	.+82     	; 0x1e6c <vfprintf+0x276>
    1e1a:	2c c0       	rjmp	.+88     	; 0x1e74 <vfprintf+0x27e>
    1e1c:	56 fc       	sbrc	r5, 6
    1e1e:	2a c0       	rjmp	.+84     	; 0x1e74 <vfprintf+0x27e>
    1e20:	87 2d       	mov	r24, r7
    1e22:	90 e0       	ldi	r25, 0x00	; 0
    1e24:	80 17       	cp	r24, r16
    1e26:	91 07       	cpc	r25, r17
    1e28:	44 f0       	brlt	.+16     	; 0x1e3a <vfprintf+0x244>
    1e2a:	0c 3f       	cpi	r16, 0xFC	; 252
    1e2c:	8f ef       	ldi	r24, 0xFF	; 255
    1e2e:	18 07       	cpc	r17, r24
    1e30:	24 f0       	brlt	.+8      	; 0x1e3a <vfprintf+0x244>
    1e32:	90 e8       	ldi	r25, 0x80	; 128
    1e34:	59 2a       	or	r5, r25
    1e36:	01 c0       	rjmp	.+2      	; 0x1e3a <vfprintf+0x244>
    1e38:	7a 94       	dec	r7
    1e3a:	77 20       	and	r7, r7
    1e3c:	49 f0       	breq	.+18     	; 0x1e50 <vfprintf+0x25a>
    1e3e:	e2 e0       	ldi	r30, 0x02	; 2
    1e40:	f0 e0       	ldi	r31, 0x00	; 0
    1e42:	ec 0f       	add	r30, r28
    1e44:	fd 1f       	adc	r31, r29
    1e46:	e7 0d       	add	r30, r7
    1e48:	f1 1d       	adc	r31, r1
    1e4a:	80 81       	ld	r24, Z
    1e4c:	80 33       	cpi	r24, 0x30	; 48
    1e4e:	a1 f3       	breq	.-24     	; 0x1e38 <vfprintf+0x242>
    1e50:	57 fe       	sbrs	r5, 7
    1e52:	10 c0       	rjmp	.+32     	; 0x1e74 <vfprintf+0x27e>
    1e54:	47 2c       	mov	r4, r7
    1e56:	43 94       	inc	r4
    1e58:	87 2d       	mov	r24, r7
    1e5a:	90 e0       	ldi	r25, 0x00	; 0
    1e5c:	08 17       	cp	r16, r24
    1e5e:	19 07       	cpc	r17, r25
    1e60:	44 f4       	brge	.+16     	; 0x1e72 <vfprintf+0x27c>
    1e62:	70 1a       	sub	r7, r16
    1e64:	07 c0       	rjmp	.+14     	; 0x1e74 <vfprintf+0x27e>
    1e66:	44 24       	eor	r4, r4
    1e68:	43 94       	inc	r4
    1e6a:	04 c0       	rjmp	.+8      	; 0x1e74 <vfprintf+0x27e>
    1e6c:	58 e0       	ldi	r21, 0x08	; 8
    1e6e:	45 2e       	mov	r4, r21
    1e70:	01 c0       	rjmp	.+2      	; 0x1e74 <vfprintf+0x27e>
    1e72:	71 2c       	mov	r7, r1
    1e74:	57 fe       	sbrs	r5, 7
    1e76:	07 c0       	rjmp	.+14     	; 0x1e86 <vfprintf+0x290>
    1e78:	10 16       	cp	r1, r16
    1e7a:	11 06       	cpc	r1, r17
    1e7c:	3c f4       	brge	.+14     	; 0x1e8c <vfprintf+0x296>
    1e7e:	98 01       	movw	r18, r16
    1e80:	2f 5f       	subi	r18, 0xFF	; 255
    1e82:	3f 4f       	sbci	r19, 0xFF	; 255
    1e84:	05 c0       	rjmp	.+10     	; 0x1e90 <vfprintf+0x29a>
    1e86:	25 e0       	ldi	r18, 0x05	; 5
    1e88:	30 e0       	ldi	r19, 0x00	; 0
    1e8a:	02 c0       	rjmp	.+4      	; 0x1e90 <vfprintf+0x29a>
    1e8c:	21 e0       	ldi	r18, 0x01	; 1
    1e8e:	30 e0       	ldi	r19, 0x00	; 0
    1e90:	dd 20       	and	r13, r13
    1e92:	11 f0       	breq	.+4      	; 0x1e98 <vfprintf+0x2a2>
    1e94:	2f 5f       	subi	r18, 0xFF	; 255
    1e96:	3f 4f       	sbci	r19, 0xFF	; 255
    1e98:	77 20       	and	r7, r7
    1e9a:	31 f0       	breq	.+12     	; 0x1ea8 <vfprintf+0x2b2>
    1e9c:	47 2d       	mov	r20, r7
    1e9e:	50 e0       	ldi	r21, 0x00	; 0
    1ea0:	4f 5f       	subi	r20, 0xFF	; 255
    1ea2:	5f 4f       	sbci	r21, 0xFF	; 255
    1ea4:	24 0f       	add	r18, r20
    1ea6:	35 1f       	adc	r19, r21
    1ea8:	46 2d       	mov	r20, r6
    1eaa:	50 e0       	ldi	r21, 0x00	; 0
    1eac:	24 17       	cp	r18, r20
    1eae:	35 07       	cpc	r19, r21
    1eb0:	14 f4       	brge	.+4      	; 0x1eb6 <vfprintf+0x2c0>
    1eb2:	62 1a       	sub	r6, r18
    1eb4:	01 c0       	rjmp	.+2      	; 0x1eb8 <vfprintf+0x2c2>
    1eb6:	61 2c       	mov	r6, r1
    1eb8:	85 2d       	mov	r24, r5
    1eba:	89 70       	andi	r24, 0x09	; 9
    1ebc:	49 f4       	brne	.+18     	; 0x1ed0 <vfprintf+0x2da>
    1ebe:	06 c0       	rjmp	.+12     	; 0x1ecc <vfprintf+0x2d6>
    1ec0:	b7 01       	movw	r22, r14
    1ec2:	80 e2       	ldi	r24, 0x20	; 32
    1ec4:	90 e0       	ldi	r25, 0x00	; 0
    1ec6:	0e 94 ca 12 	call	0x2594	; 0x2594 <fputc>
    1eca:	6a 94       	dec	r6
    1ecc:	61 10       	cpse	r6, r1
    1ece:	f8 cf       	rjmp	.-16     	; 0x1ec0 <vfprintf+0x2ca>
    1ed0:	dd 20       	and	r13, r13
    1ed2:	29 f0       	breq	.+10     	; 0x1ede <vfprintf+0x2e8>
    1ed4:	b7 01       	movw	r22, r14
    1ed6:	8d 2d       	mov	r24, r13
    1ed8:	90 e0       	ldi	r25, 0x00	; 0
    1eda:	0e 94 ca 12 	call	0x2594	; 0x2594 <fputc>
    1ede:	53 fc       	sbrc	r5, 3
    1ee0:	09 c0       	rjmp	.+18     	; 0x1ef4 <vfprintf+0x2fe>
    1ee2:	06 c0       	rjmp	.+12     	; 0x1ef0 <vfprintf+0x2fa>
    1ee4:	b7 01       	movw	r22, r14
    1ee6:	80 e3       	ldi	r24, 0x30	; 48
    1ee8:	90 e0       	ldi	r25, 0x00	; 0
    1eea:	0e 94 ca 12 	call	0x2594	; 0x2594 <fputc>
    1eee:	6a 94       	dec	r6
    1ef0:	61 10       	cpse	r6, r1
    1ef2:	f8 cf       	rjmp	.-16     	; 0x1ee4 <vfprintf+0x2ee>
    1ef4:	57 fe       	sbrs	r5, 7
    1ef6:	56 c0       	rjmp	.+172    	; 0x1fa4 <vfprintf+0x3ae>
    1ef8:	68 01       	movw	r12, r16
    1efa:	17 ff       	sbrs	r17, 7
    1efc:	02 c0       	rjmp	.+4      	; 0x1f02 <vfprintf+0x30c>
    1efe:	c1 2c       	mov	r12, r1
    1f00:	d1 2c       	mov	r13, r1
    1f02:	20 e0       	ldi	r18, 0x00	; 0
    1f04:	30 e0       	ldi	r19, 0x00	; 0
    1f06:	a8 01       	movw	r20, r16
    1f08:	44 19       	sub	r20, r4
    1f0a:	51 09       	sbc	r21, r1
    1f0c:	5e 87       	std	Y+14, r21	; 0x0e
    1f0e:	4d 87       	std	Y+13, r20	; 0x0d
    1f10:	28 01       	movw	r4, r16
    1f12:	4c 18       	sub	r4, r12
    1f14:	5d 08       	sbc	r5, r13
    1f16:	48 0c       	add	r4, r8
    1f18:	59 1c       	adc	r5, r9
    1f1a:	87 2d       	mov	r24, r7
    1f1c:	90 e0       	ldi	r25, 0x00	; 0
    1f1e:	44 27       	eor	r20, r20
    1f20:	55 27       	eor	r21, r21
    1f22:	48 1b       	sub	r20, r24
    1f24:	59 0b       	sbc	r21, r25
    1f26:	58 8b       	std	Y+16, r21	; 0x10
    1f28:	4f 87       	std	Y+15, r20	; 0x0f
    1f2a:	5f ef       	ldi	r21, 0xFF	; 255
    1f2c:	c5 16       	cp	r12, r21
    1f2e:	d5 06       	cpc	r13, r21
    1f30:	49 f4       	brne	.+18     	; 0x1f44 <vfprintf+0x34e>
    1f32:	b7 01       	movw	r22, r14
    1f34:	8e e2       	ldi	r24, 0x2E	; 46
    1f36:	90 e0       	ldi	r25, 0x00	; 0
    1f38:	2a 8b       	std	Y+18, r18	; 0x12
    1f3a:	39 8b       	std	Y+17, r19	; 0x11
    1f3c:	0e 94 ca 12 	call	0x2594	; 0x2594 <fputc>
    1f40:	39 89       	ldd	r19, Y+17	; 0x11
    1f42:	2a 89       	ldd	r18, Y+18	; 0x12
    1f44:	0c 15       	cp	r16, r12
    1f46:	1d 05       	cpc	r17, r13
    1f48:	54 f0       	brlt	.+20     	; 0x1f5e <vfprintf+0x368>
    1f4a:	4d 85       	ldd	r20, Y+13	; 0x0d
    1f4c:	5e 85       	ldd	r21, Y+14	; 0x0e
    1f4e:	4c 15       	cp	r20, r12
    1f50:	5d 05       	cpc	r21, r13
    1f52:	2c f4       	brge	.+10     	; 0x1f5e <vfprintf+0x368>
    1f54:	f2 01       	movw	r30, r4
    1f56:	e2 0f       	add	r30, r18
    1f58:	f3 1f       	adc	r31, r19
    1f5a:	81 81       	ldd	r24, Z+1	; 0x01
    1f5c:	01 c0       	rjmp	.+2      	; 0x1f60 <vfprintf+0x36a>
    1f5e:	80 e3       	ldi	r24, 0x30	; 48
    1f60:	51 e0       	ldi	r21, 0x01	; 1
    1f62:	c5 1a       	sub	r12, r21
    1f64:	d1 08       	sbc	r13, r1
    1f66:	2f 5f       	subi	r18, 0xFF	; 255
    1f68:	3f 4f       	sbci	r19, 0xFF	; 255
    1f6a:	4f 85       	ldd	r20, Y+15	; 0x0f
    1f6c:	58 89       	ldd	r21, Y+16	; 0x10
    1f6e:	c4 16       	cp	r12, r20
    1f70:	d5 06       	cpc	r13, r21
    1f72:	4c f0       	brlt	.+18     	; 0x1f86 <vfprintf+0x390>
    1f74:	b7 01       	movw	r22, r14
    1f76:	90 e0       	ldi	r25, 0x00	; 0
    1f78:	2a 8b       	std	Y+18, r18	; 0x12
    1f7a:	39 8b       	std	Y+17, r19	; 0x11
    1f7c:	0e 94 ca 12 	call	0x2594	; 0x2594 <fputc>
    1f80:	2a 89       	ldd	r18, Y+18	; 0x12
    1f82:	39 89       	ldd	r19, Y+17	; 0x11
    1f84:	d2 cf       	rjmp	.-92     	; 0x1f2a <vfprintf+0x334>
    1f86:	c0 16       	cp	r12, r16
    1f88:	d1 06       	cpc	r13, r17
    1f8a:	49 f4       	brne	.+18     	; 0x1f9e <vfprintf+0x3a8>
    1f8c:	9a 81       	ldd	r25, Y+2	; 0x02
    1f8e:	96 33       	cpi	r25, 0x36	; 54
    1f90:	28 f4       	brcc	.+10     	; 0x1f9c <vfprintf+0x3a6>
    1f92:	95 33       	cpi	r25, 0x35	; 53
    1f94:	21 f4       	brne	.+8      	; 0x1f9e <vfprintf+0x3a8>
    1f96:	5c 85       	ldd	r21, Y+12	; 0x0c
    1f98:	54 fd       	sbrc	r21, 4
    1f9a:	01 c0       	rjmp	.+2      	; 0x1f9e <vfprintf+0x3a8>
    1f9c:	81 e3       	ldi	r24, 0x31	; 49
    1f9e:	b7 01       	movw	r22, r14
    1fa0:	90 e0       	ldi	r25, 0x00	; 0
    1fa2:	4a c0       	rjmp	.+148    	; 0x2038 <vfprintf+0x442>
    1fa4:	8a 81       	ldd	r24, Y+2	; 0x02
    1fa6:	81 33       	cpi	r24, 0x31	; 49
    1fa8:	19 f0       	breq	.+6      	; 0x1fb0 <vfprintf+0x3ba>
    1faa:	4c 85       	ldd	r20, Y+12	; 0x0c
    1fac:	4f 7e       	andi	r20, 0xEF	; 239
    1fae:	4c 87       	std	Y+12, r20	; 0x0c
    1fb0:	b7 01       	movw	r22, r14
    1fb2:	90 e0       	ldi	r25, 0x00	; 0
    1fb4:	0e 94 ca 12 	call	0x2594	; 0x2594 <fputc>
    1fb8:	71 10       	cpse	r7, r1
    1fba:	05 c0       	rjmp	.+10     	; 0x1fc6 <vfprintf+0x3d0>
    1fbc:	54 fe       	sbrs	r5, 4
    1fbe:	16 c0       	rjmp	.+44     	; 0x1fec <vfprintf+0x3f6>
    1fc0:	85 e4       	ldi	r24, 0x45	; 69
    1fc2:	90 e0       	ldi	r25, 0x00	; 0
    1fc4:	15 c0       	rjmp	.+42     	; 0x1ff0 <vfprintf+0x3fa>
    1fc6:	b7 01       	movw	r22, r14
    1fc8:	8e e2       	ldi	r24, 0x2E	; 46
    1fca:	90 e0       	ldi	r25, 0x00	; 0
    1fcc:	0e 94 ca 12 	call	0x2594	; 0x2594 <fputc>
    1fd0:	42 e0       	ldi	r20, 0x02	; 2
    1fd2:	d4 2e       	mov	r13, r20
    1fd4:	f4 01       	movw	r30, r8
    1fd6:	ed 0d       	add	r30, r13
    1fd8:	f1 1d       	adc	r31, r1
    1fda:	d3 94       	inc	r13
    1fdc:	b7 01       	movw	r22, r14
    1fde:	80 81       	ld	r24, Z
    1fe0:	90 e0       	ldi	r25, 0x00	; 0
    1fe2:	0e 94 ca 12 	call	0x2594	; 0x2594 <fputc>
    1fe6:	7a 94       	dec	r7
    1fe8:	a9 f7       	brne	.-22     	; 0x1fd4 <vfprintf+0x3de>
    1fea:	e8 cf       	rjmp	.-48     	; 0x1fbc <vfprintf+0x3c6>
    1fec:	85 e6       	ldi	r24, 0x65	; 101
    1fee:	90 e0       	ldi	r25, 0x00	; 0
    1ff0:	b7 01       	movw	r22, r14
    1ff2:	0e 94 ca 12 	call	0x2594	; 0x2594 <fputc>
    1ff6:	17 fd       	sbrc	r17, 7
    1ff8:	06 c0       	rjmp	.+12     	; 0x2006 <vfprintf+0x410>
    1ffa:	01 15       	cp	r16, r1
    1ffc:	11 05       	cpc	r17, r1
    1ffe:	41 f4       	brne	.+16     	; 0x2010 <vfprintf+0x41a>
    2000:	5c 85       	ldd	r21, Y+12	; 0x0c
    2002:	54 ff       	sbrs	r21, 4
    2004:	05 c0       	rjmp	.+10     	; 0x2010 <vfprintf+0x41a>
    2006:	11 95       	neg	r17
    2008:	01 95       	neg	r16
    200a:	11 09       	sbc	r17, r1
    200c:	8d e2       	ldi	r24, 0x2D	; 45
    200e:	01 c0       	rjmp	.+2      	; 0x2012 <vfprintf+0x41c>
    2010:	8b e2       	ldi	r24, 0x2B	; 43
    2012:	b7 01       	movw	r22, r14
    2014:	90 e0       	ldi	r25, 0x00	; 0
    2016:	0e 94 ca 12 	call	0x2594	; 0x2594 <fputc>
    201a:	80 e3       	ldi	r24, 0x30	; 48
    201c:	03 c0       	rjmp	.+6      	; 0x2024 <vfprintf+0x42e>
    201e:	8f 5f       	subi	r24, 0xFF	; 255
    2020:	0a 50       	subi	r16, 0x0A	; 10
    2022:	11 09       	sbc	r17, r1
    2024:	0a 30       	cpi	r16, 0x0A	; 10
    2026:	11 05       	cpc	r17, r1
    2028:	d4 f7       	brge	.-12     	; 0x201e <vfprintf+0x428>
    202a:	b7 01       	movw	r22, r14
    202c:	90 e0       	ldi	r25, 0x00	; 0
    202e:	0e 94 ca 12 	call	0x2594	; 0x2594 <fputc>
    2032:	b7 01       	movw	r22, r14
    2034:	c8 01       	movw	r24, r16
    2036:	c0 96       	adiw	r24, 0x30	; 48
    2038:	0e 94 ca 12 	call	0x2594	; 0x2594 <fputc>
    203c:	50 c1       	rjmp	.+672    	; 0x22de <vfprintf+0x6e8>
    203e:	83 36       	cpi	r24, 0x63	; 99
    2040:	31 f0       	breq	.+12     	; 0x204e <vfprintf+0x458>
    2042:	83 37       	cpi	r24, 0x73	; 115
    2044:	81 f0       	breq	.+32     	; 0x2066 <vfprintf+0x470>
    2046:	83 35       	cpi	r24, 0x53	; 83
    2048:	09 f0       	breq	.+2      	; 0x204c <vfprintf+0x456>
    204a:	5e c0       	rjmp	.+188    	; 0x2108 <vfprintf+0x512>
    204c:	24 c0       	rjmp	.+72     	; 0x2096 <vfprintf+0x4a0>
    204e:	56 01       	movw	r10, r12
    2050:	82 e0       	ldi	r24, 0x02	; 2
    2052:	a8 0e       	add	r10, r24
    2054:	b1 1c       	adc	r11, r1
    2056:	f6 01       	movw	r30, r12
    2058:	80 81       	ld	r24, Z
    205a:	89 83       	std	Y+1, r24	; 0x01
    205c:	cc 24       	eor	r12, r12
    205e:	c3 94       	inc	r12
    2060:	d1 2c       	mov	r13, r1
    2062:	84 01       	movw	r16, r8
    2064:	14 c0       	rjmp	.+40     	; 0x208e <vfprintf+0x498>
    2066:	56 01       	movw	r10, r12
    2068:	f2 e0       	ldi	r31, 0x02	; 2
    206a:	af 0e       	add	r10, r31
    206c:	b1 1c       	adc	r11, r1
    206e:	f6 01       	movw	r30, r12
    2070:	00 81       	ld	r16, Z
    2072:	11 81       	ldd	r17, Z+1	; 0x01
    2074:	26 ff       	sbrs	r18, 6
    2076:	03 c0       	rjmp	.+6      	; 0x207e <vfprintf+0x488>
    2078:	67 2d       	mov	r22, r7
    207a:	70 e0       	ldi	r23, 0x00	; 0
    207c:	02 c0       	rjmp	.+4      	; 0x2082 <vfprintf+0x48c>
    207e:	6f ef       	ldi	r22, 0xFF	; 255
    2080:	7f ef       	ldi	r23, 0xFF	; 255
    2082:	c8 01       	movw	r24, r16
    2084:	2a 8b       	std	Y+18, r18	; 0x12
    2086:	0e 94 bf 12 	call	0x257e	; 0x257e <strnlen>
    208a:	6c 01       	movw	r12, r24
    208c:	2a 89       	ldd	r18, Y+18	; 0x12
    208e:	9f e7       	ldi	r25, 0x7F	; 127
    2090:	59 2e       	mov	r5, r25
    2092:	52 22       	and	r5, r18
    2094:	17 c0       	rjmp	.+46     	; 0x20c4 <vfprintf+0x4ce>
    2096:	56 01       	movw	r10, r12
    2098:	f2 e0       	ldi	r31, 0x02	; 2
    209a:	af 0e       	add	r10, r31
    209c:	b1 1c       	adc	r11, r1
    209e:	f6 01       	movw	r30, r12
    20a0:	00 81       	ld	r16, Z
    20a2:	11 81       	ldd	r17, Z+1	; 0x01
    20a4:	26 ff       	sbrs	r18, 6
    20a6:	03 c0       	rjmp	.+6      	; 0x20ae <vfprintf+0x4b8>
    20a8:	67 2d       	mov	r22, r7
    20aa:	70 e0       	ldi	r23, 0x00	; 0
    20ac:	02 c0       	rjmp	.+4      	; 0x20b2 <vfprintf+0x4bc>
    20ae:	6f ef       	ldi	r22, 0xFF	; 255
    20b0:	7f ef       	ldi	r23, 0xFF	; 255
    20b2:	c8 01       	movw	r24, r16
    20b4:	2a 8b       	std	Y+18, r18	; 0x12
    20b6:	0e 94 8c 12 	call	0x2518	; 0x2518 <strnlen_P>
    20ba:	6c 01       	movw	r12, r24
    20bc:	2a 89       	ldd	r18, Y+18	; 0x12
    20be:	80 e8       	ldi	r24, 0x80	; 128
    20c0:	58 2e       	mov	r5, r24
    20c2:	52 2a       	or	r5, r18
    20c4:	53 fc       	sbrc	r5, 3
    20c6:	1c c0       	rjmp	.+56     	; 0x2100 <vfprintf+0x50a>
    20c8:	06 c0       	rjmp	.+12     	; 0x20d6 <vfprintf+0x4e0>
    20ca:	b7 01       	movw	r22, r14
    20cc:	80 e2       	ldi	r24, 0x20	; 32
    20ce:	90 e0       	ldi	r25, 0x00	; 0
    20d0:	0e 94 ca 12 	call	0x2594	; 0x2594 <fputc>
    20d4:	6a 94       	dec	r6
    20d6:	86 2d       	mov	r24, r6
    20d8:	90 e0       	ldi	r25, 0x00	; 0
    20da:	c8 16       	cp	r12, r24
    20dc:	d9 06       	cpc	r13, r25
    20de:	a8 f3       	brcs	.-22     	; 0x20ca <vfprintf+0x4d4>
    20e0:	0f c0       	rjmp	.+30     	; 0x2100 <vfprintf+0x50a>
    20e2:	f8 01       	movw	r30, r16
    20e4:	57 fc       	sbrc	r5, 7
    20e6:	85 91       	lpm	r24, Z+
    20e8:	57 fe       	sbrs	r5, 7
    20ea:	81 91       	ld	r24, Z+
    20ec:	8f 01       	movw	r16, r30
    20ee:	b7 01       	movw	r22, r14
    20f0:	90 e0       	ldi	r25, 0x00	; 0
    20f2:	0e 94 ca 12 	call	0x2594	; 0x2594 <fputc>
    20f6:	61 10       	cpse	r6, r1
    20f8:	6a 94       	dec	r6
    20fa:	f1 e0       	ldi	r31, 0x01	; 1
    20fc:	cf 1a       	sub	r12, r31
    20fe:	d1 08       	sbc	r13, r1
    2100:	c1 14       	cp	r12, r1
    2102:	d1 04       	cpc	r13, r1
    2104:	71 f7       	brne	.-36     	; 0x20e2 <vfprintf+0x4ec>
    2106:	eb c0       	rjmp	.+470    	; 0x22de <vfprintf+0x6e8>
    2108:	84 36       	cpi	r24, 0x64	; 100
    210a:	11 f0       	breq	.+4      	; 0x2110 <vfprintf+0x51a>
    210c:	89 36       	cpi	r24, 0x69	; 105
    210e:	51 f5       	brne	.+84     	; 0x2164 <vfprintf+0x56e>
    2110:	56 01       	movw	r10, r12
    2112:	27 ff       	sbrs	r18, 7
    2114:	09 c0       	rjmp	.+18     	; 0x2128 <vfprintf+0x532>
    2116:	44 e0       	ldi	r20, 0x04	; 4
    2118:	a4 0e       	add	r10, r20
    211a:	b1 1c       	adc	r11, r1
    211c:	f6 01       	movw	r30, r12
    211e:	60 81       	ld	r22, Z
    2120:	71 81       	ldd	r23, Z+1	; 0x01
    2122:	82 81       	ldd	r24, Z+2	; 0x02
    2124:	93 81       	ldd	r25, Z+3	; 0x03
    2126:	0a c0       	rjmp	.+20     	; 0x213c <vfprintf+0x546>
    2128:	f2 e0       	ldi	r31, 0x02	; 2
    212a:	af 0e       	add	r10, r31
    212c:	b1 1c       	adc	r11, r1
    212e:	f6 01       	movw	r30, r12
    2130:	60 81       	ld	r22, Z
    2132:	71 81       	ldd	r23, Z+1	; 0x01
    2134:	88 27       	eor	r24, r24
    2136:	77 fd       	sbrc	r23, 7
    2138:	80 95       	com	r24
    213a:	98 2f       	mov	r25, r24
    213c:	12 2f       	mov	r17, r18
    213e:	1f 76       	andi	r17, 0x6F	; 111
    2140:	97 ff       	sbrs	r25, 7
    2142:	08 c0       	rjmp	.+16     	; 0x2154 <vfprintf+0x55e>
    2144:	90 95       	com	r25
    2146:	80 95       	com	r24
    2148:	70 95       	com	r23
    214a:	61 95       	neg	r22
    214c:	7f 4f       	sbci	r23, 0xFF	; 255
    214e:	8f 4f       	sbci	r24, 0xFF	; 255
    2150:	9f 4f       	sbci	r25, 0xFF	; 255
    2152:	10 68       	ori	r17, 0x80	; 128
    2154:	2a e0       	ldi	r18, 0x0A	; 10
    2156:	30 e0       	ldi	r19, 0x00	; 0
    2158:	a4 01       	movw	r20, r8
    215a:	0e 94 18 13 	call	0x2630	; 0x2630 <__ultoa_invert>
    215e:	d8 2e       	mov	r13, r24
    2160:	d8 18       	sub	r13, r8
    2162:	40 c0       	rjmp	.+128    	; 0x21e4 <vfprintf+0x5ee>
    2164:	12 2f       	mov	r17, r18
    2166:	85 37       	cpi	r24, 0x75	; 117
    2168:	21 f4       	brne	.+8      	; 0x2172 <vfprintf+0x57c>
    216a:	1f 7e       	andi	r17, 0xEF	; 239
    216c:	2a e0       	ldi	r18, 0x0A	; 10
    216e:	30 e0       	ldi	r19, 0x00	; 0
    2170:	1f c0       	rjmp	.+62     	; 0x21b0 <vfprintf+0x5ba>
    2172:	19 7f       	andi	r17, 0xF9	; 249
    2174:	8f 36       	cpi	r24, 0x6F	; 111
    2176:	a1 f0       	breq	.+40     	; 0x21a0 <vfprintf+0x5aa>
    2178:	20 f4       	brcc	.+8      	; 0x2182 <vfprintf+0x58c>
    217a:	88 35       	cpi	r24, 0x58	; 88
    217c:	09 f0       	breq	.+2      	; 0x2180 <vfprintf+0x58a>
    217e:	b2 c0       	rjmp	.+356    	; 0x22e4 <vfprintf+0x6ee>
    2180:	0b c0       	rjmp	.+22     	; 0x2198 <vfprintf+0x5a2>
    2182:	80 37       	cpi	r24, 0x70	; 112
    2184:	21 f0       	breq	.+8      	; 0x218e <vfprintf+0x598>
    2186:	88 37       	cpi	r24, 0x78	; 120
    2188:	09 f0       	breq	.+2      	; 0x218c <vfprintf+0x596>
    218a:	ac c0       	rjmp	.+344    	; 0x22e4 <vfprintf+0x6ee>
    218c:	01 c0       	rjmp	.+2      	; 0x2190 <vfprintf+0x59a>
    218e:	10 61       	ori	r17, 0x10	; 16
    2190:	14 ff       	sbrs	r17, 4
    2192:	09 c0       	rjmp	.+18     	; 0x21a6 <vfprintf+0x5b0>
    2194:	14 60       	ori	r17, 0x04	; 4
    2196:	07 c0       	rjmp	.+14     	; 0x21a6 <vfprintf+0x5b0>
    2198:	24 ff       	sbrs	r18, 4
    219a:	08 c0       	rjmp	.+16     	; 0x21ac <vfprintf+0x5b6>
    219c:	16 60       	ori	r17, 0x06	; 6
    219e:	06 c0       	rjmp	.+12     	; 0x21ac <vfprintf+0x5b6>
    21a0:	28 e0       	ldi	r18, 0x08	; 8
    21a2:	30 e0       	ldi	r19, 0x00	; 0
    21a4:	05 c0       	rjmp	.+10     	; 0x21b0 <vfprintf+0x5ba>
    21a6:	20 e1       	ldi	r18, 0x10	; 16
    21a8:	30 e0       	ldi	r19, 0x00	; 0
    21aa:	02 c0       	rjmp	.+4      	; 0x21b0 <vfprintf+0x5ba>
    21ac:	20 e1       	ldi	r18, 0x10	; 16
    21ae:	32 e0       	ldi	r19, 0x02	; 2
    21b0:	56 01       	movw	r10, r12
    21b2:	17 ff       	sbrs	r17, 7
    21b4:	09 c0       	rjmp	.+18     	; 0x21c8 <vfprintf+0x5d2>
    21b6:	f4 e0       	ldi	r31, 0x04	; 4
    21b8:	af 0e       	add	r10, r31
    21ba:	b1 1c       	adc	r11, r1
    21bc:	f6 01       	movw	r30, r12
    21be:	60 81       	ld	r22, Z
    21c0:	71 81       	ldd	r23, Z+1	; 0x01
    21c2:	82 81       	ldd	r24, Z+2	; 0x02
    21c4:	93 81       	ldd	r25, Z+3	; 0x03
    21c6:	08 c0       	rjmp	.+16     	; 0x21d8 <vfprintf+0x5e2>
    21c8:	f2 e0       	ldi	r31, 0x02	; 2
    21ca:	af 0e       	add	r10, r31
    21cc:	b1 1c       	adc	r11, r1
    21ce:	f6 01       	movw	r30, r12
    21d0:	60 81       	ld	r22, Z
    21d2:	71 81       	ldd	r23, Z+1	; 0x01
    21d4:	80 e0       	ldi	r24, 0x00	; 0
    21d6:	90 e0       	ldi	r25, 0x00	; 0
    21d8:	a4 01       	movw	r20, r8
    21da:	0e 94 18 13 	call	0x2630	; 0x2630 <__ultoa_invert>
    21de:	d8 2e       	mov	r13, r24
    21e0:	d8 18       	sub	r13, r8
    21e2:	1f 77       	andi	r17, 0x7F	; 127
    21e4:	16 ff       	sbrs	r17, 6
    21e6:	0b c0       	rjmp	.+22     	; 0x21fe <vfprintf+0x608>
    21e8:	21 2f       	mov	r18, r17
    21ea:	2e 7f       	andi	r18, 0xFE	; 254
    21ec:	d7 14       	cp	r13, r7
    21ee:	50 f4       	brcc	.+20     	; 0x2204 <vfprintf+0x60e>
    21f0:	14 ff       	sbrs	r17, 4
    21f2:	0a c0       	rjmp	.+20     	; 0x2208 <vfprintf+0x612>
    21f4:	12 fd       	sbrc	r17, 2
    21f6:	08 c0       	rjmp	.+16     	; 0x2208 <vfprintf+0x612>
    21f8:	21 2f       	mov	r18, r17
    21fa:	2e 7e       	andi	r18, 0xEE	; 238
    21fc:	05 c0       	rjmp	.+10     	; 0x2208 <vfprintf+0x612>
    21fe:	0d 2d       	mov	r16, r13
    2200:	21 2f       	mov	r18, r17
    2202:	03 c0       	rjmp	.+6      	; 0x220a <vfprintf+0x614>
    2204:	0d 2d       	mov	r16, r13
    2206:	01 c0       	rjmp	.+2      	; 0x220a <vfprintf+0x614>
    2208:	07 2d       	mov	r16, r7
    220a:	24 ff       	sbrs	r18, 4
    220c:	0c c0       	rjmp	.+24     	; 0x2226 <vfprintf+0x630>
    220e:	fe 01       	movw	r30, r28
    2210:	ed 0d       	add	r30, r13
    2212:	f1 1d       	adc	r31, r1
    2214:	80 81       	ld	r24, Z
    2216:	80 33       	cpi	r24, 0x30	; 48
    2218:	11 f4       	brne	.+4      	; 0x221e <vfprintf+0x628>
    221a:	29 7e       	andi	r18, 0xE9	; 233
    221c:	08 c0       	rjmp	.+16     	; 0x222e <vfprintf+0x638>
    221e:	22 ff       	sbrs	r18, 2
    2220:	05 c0       	rjmp	.+10     	; 0x222c <vfprintf+0x636>
    2222:	0e 5f       	subi	r16, 0xFE	; 254
    2224:	04 c0       	rjmp	.+8      	; 0x222e <vfprintf+0x638>
    2226:	82 2f       	mov	r24, r18
    2228:	86 78       	andi	r24, 0x86	; 134
    222a:	09 f0       	breq	.+2      	; 0x222e <vfprintf+0x638>
    222c:	0f 5f       	subi	r16, 0xFF	; 255
    222e:	23 fd       	sbrc	r18, 3
    2230:	14 c0       	rjmp	.+40     	; 0x225a <vfprintf+0x664>
    2232:	20 ff       	sbrs	r18, 0
    2234:	0f c0       	rjmp	.+30     	; 0x2254 <vfprintf+0x65e>
    2236:	7d 2c       	mov	r7, r13
    2238:	06 15       	cp	r16, r6
    223a:	60 f4       	brcc	.+24     	; 0x2254 <vfprintf+0x65e>
    223c:	76 0c       	add	r7, r6
    223e:	70 1a       	sub	r7, r16
    2240:	06 2d       	mov	r16, r6
    2242:	08 c0       	rjmp	.+16     	; 0x2254 <vfprintf+0x65e>
    2244:	b7 01       	movw	r22, r14
    2246:	80 e2       	ldi	r24, 0x20	; 32
    2248:	90 e0       	ldi	r25, 0x00	; 0
    224a:	2a 8b       	std	Y+18, r18	; 0x12
    224c:	0e 94 ca 12 	call	0x2594	; 0x2594 <fputc>
    2250:	0f 5f       	subi	r16, 0xFF	; 255
    2252:	2a 89       	ldd	r18, Y+18	; 0x12
    2254:	06 15       	cp	r16, r6
    2256:	b0 f3       	brcs	.-20     	; 0x2244 <vfprintf+0x64e>
    2258:	04 c0       	rjmp	.+8      	; 0x2262 <vfprintf+0x66c>
    225a:	06 15       	cp	r16, r6
    225c:	10 f4       	brcc	.+4      	; 0x2262 <vfprintf+0x66c>
    225e:	60 1a       	sub	r6, r16
    2260:	01 c0       	rjmp	.+2      	; 0x2264 <vfprintf+0x66e>
    2262:	61 2c       	mov	r6, r1
    2264:	24 ff       	sbrs	r18, 4
    2266:	12 c0       	rjmp	.+36     	; 0x228c <vfprintf+0x696>
    2268:	b7 01       	movw	r22, r14
    226a:	80 e3       	ldi	r24, 0x30	; 48
    226c:	90 e0       	ldi	r25, 0x00	; 0
    226e:	2a 8b       	std	Y+18, r18	; 0x12
    2270:	0e 94 ca 12 	call	0x2594	; 0x2594 <fputc>
    2274:	2a 89       	ldd	r18, Y+18	; 0x12
    2276:	22 ff       	sbrs	r18, 2
    2278:	1e c0       	rjmp	.+60     	; 0x22b6 <vfprintf+0x6c0>
    227a:	21 ff       	sbrs	r18, 1
    227c:	03 c0       	rjmp	.+6      	; 0x2284 <vfprintf+0x68e>
    227e:	88 e5       	ldi	r24, 0x58	; 88
    2280:	90 e0       	ldi	r25, 0x00	; 0
    2282:	02 c0       	rjmp	.+4      	; 0x2288 <vfprintf+0x692>
    2284:	88 e7       	ldi	r24, 0x78	; 120
    2286:	90 e0       	ldi	r25, 0x00	; 0
    2288:	b7 01       	movw	r22, r14
    228a:	0c c0       	rjmp	.+24     	; 0x22a4 <vfprintf+0x6ae>
    228c:	82 2f       	mov	r24, r18
    228e:	86 78       	andi	r24, 0x86	; 134
    2290:	91 f0       	breq	.+36     	; 0x22b6 <vfprintf+0x6c0>
    2292:	21 fd       	sbrc	r18, 1
    2294:	02 c0       	rjmp	.+4      	; 0x229a <vfprintf+0x6a4>
    2296:	80 e2       	ldi	r24, 0x20	; 32
    2298:	01 c0       	rjmp	.+2      	; 0x229c <vfprintf+0x6a6>
    229a:	8b e2       	ldi	r24, 0x2B	; 43
    229c:	27 fd       	sbrc	r18, 7
    229e:	8d e2       	ldi	r24, 0x2D	; 45
    22a0:	b7 01       	movw	r22, r14
    22a2:	90 e0       	ldi	r25, 0x00	; 0
    22a4:	0e 94 ca 12 	call	0x2594	; 0x2594 <fputc>
    22a8:	06 c0       	rjmp	.+12     	; 0x22b6 <vfprintf+0x6c0>
    22aa:	b7 01       	movw	r22, r14
    22ac:	80 e3       	ldi	r24, 0x30	; 48
    22ae:	90 e0       	ldi	r25, 0x00	; 0
    22b0:	0e 94 ca 12 	call	0x2594	; 0x2594 <fputc>
    22b4:	7a 94       	dec	r7
    22b6:	d7 14       	cp	r13, r7
    22b8:	c0 f3       	brcs	.-16     	; 0x22aa <vfprintf+0x6b4>
    22ba:	da 94       	dec	r13
    22bc:	f4 01       	movw	r30, r8
    22be:	ed 0d       	add	r30, r13
    22c0:	f1 1d       	adc	r31, r1
    22c2:	b7 01       	movw	r22, r14
    22c4:	80 81       	ld	r24, Z
    22c6:	90 e0       	ldi	r25, 0x00	; 0
    22c8:	0e 94 ca 12 	call	0x2594	; 0x2594 <fputc>
    22cc:	d1 10       	cpse	r13, r1
    22ce:	f5 cf       	rjmp	.-22     	; 0x22ba <vfprintf+0x6c4>
    22d0:	06 c0       	rjmp	.+12     	; 0x22de <vfprintf+0x6e8>
    22d2:	b7 01       	movw	r22, r14
    22d4:	80 e2       	ldi	r24, 0x20	; 32
    22d6:	90 e0       	ldi	r25, 0x00	; 0
    22d8:	0e 94 ca 12 	call	0x2594	; 0x2594 <fputc>
    22dc:	6a 94       	dec	r6
    22de:	61 10       	cpse	r6, r1
    22e0:	f8 cf       	rjmp	.-16     	; 0x22d2 <vfprintf+0x6dc>
    22e2:	99 cc       	rjmp	.-1742   	; 0x1c16 <vfprintf+0x20>
    22e4:	f7 01       	movw	r30, r14
    22e6:	26 81       	ldd	r18, Z+6	; 0x06
    22e8:	37 81       	ldd	r19, Z+7	; 0x07
    22ea:	02 c0       	rjmp	.+4      	; 0x22f0 <vfprintf+0x6fa>
    22ec:	2f ef       	ldi	r18, 0xFF	; 255
    22ee:	3f ef       	ldi	r19, 0xFF	; 255
    22f0:	c9 01       	movw	r24, r18
    22f2:	62 96       	adiw	r28, 0x12	; 18
    22f4:	e2 e1       	ldi	r30, 0x12	; 18
    22f6:	0c 94 99 11 	jmp	0x2332	; 0x2332 <__epilogue_restores__>

000022fa <__prologue_saves__>:
    22fa:	2f 92       	push	r2
    22fc:	3f 92       	push	r3
    22fe:	4f 92       	push	r4
    2300:	5f 92       	push	r5
    2302:	6f 92       	push	r6
    2304:	7f 92       	push	r7
    2306:	8f 92       	push	r8
    2308:	9f 92       	push	r9
    230a:	af 92       	push	r10
    230c:	bf 92       	push	r11
    230e:	cf 92       	push	r12
    2310:	df 92       	push	r13
    2312:	ef 92       	push	r14
    2314:	ff 92       	push	r15
    2316:	0f 93       	push	r16
    2318:	1f 93       	push	r17
    231a:	cf 93       	push	r28
    231c:	df 93       	push	r29
    231e:	cd b7       	in	r28, 0x3d	; 61
    2320:	de b7       	in	r29, 0x3e	; 62
    2322:	ca 1b       	sub	r28, r26
    2324:	db 0b       	sbc	r29, r27
    2326:	0f b6       	in	r0, 0x3f	; 63
    2328:	f8 94       	cli
    232a:	de bf       	out	0x3e, r29	; 62
    232c:	0f be       	out	0x3f, r0	; 63
    232e:	cd bf       	out	0x3d, r28	; 61
    2330:	09 94       	ijmp

00002332 <__epilogue_restores__>:
    2332:	2a 88       	ldd	r2, Y+18	; 0x12
    2334:	39 88       	ldd	r3, Y+17	; 0x11
    2336:	48 88       	ldd	r4, Y+16	; 0x10
    2338:	5f 84       	ldd	r5, Y+15	; 0x0f
    233a:	6e 84       	ldd	r6, Y+14	; 0x0e
    233c:	7d 84       	ldd	r7, Y+13	; 0x0d
    233e:	8c 84       	ldd	r8, Y+12	; 0x0c
    2340:	9b 84       	ldd	r9, Y+11	; 0x0b
    2342:	aa 84       	ldd	r10, Y+10	; 0x0a
    2344:	b9 84       	ldd	r11, Y+9	; 0x09
    2346:	c8 84       	ldd	r12, Y+8	; 0x08
    2348:	df 80       	ldd	r13, Y+7	; 0x07
    234a:	ee 80       	ldd	r14, Y+6	; 0x06
    234c:	fd 80       	ldd	r15, Y+5	; 0x05
    234e:	0c 81       	ldd	r16, Y+4	; 0x04
    2350:	1b 81       	ldd	r17, Y+3	; 0x03
    2352:	aa 81       	ldd	r26, Y+2	; 0x02
    2354:	b9 81       	ldd	r27, Y+1	; 0x01
    2356:	ce 0f       	add	r28, r30
    2358:	d1 1d       	adc	r29, r1
    235a:	0f b6       	in	r0, 0x3f	; 63
    235c:	f8 94       	cli
    235e:	de bf       	out	0x3e, r29	; 62
    2360:	0f be       	out	0x3f, r0	; 63
    2362:	cd bf       	out	0x3d, r28	; 61
    2364:	ed 01       	movw	r28, r26
    2366:	08 95       	ret

00002368 <__ftoa_engine>:
    2368:	28 30       	cpi	r18, 0x08	; 8
    236a:	08 f0       	brcs	.+2      	; 0x236e <__ftoa_engine+0x6>
    236c:	27 e0       	ldi	r18, 0x07	; 7
    236e:	33 27       	eor	r19, r19
    2370:	da 01       	movw	r26, r20
    2372:	99 0f       	add	r25, r25
    2374:	31 1d       	adc	r19, r1
    2376:	87 fd       	sbrc	r24, 7
    2378:	91 60       	ori	r25, 0x01	; 1
    237a:	00 96       	adiw	r24, 0x00	; 0
    237c:	61 05       	cpc	r22, r1
    237e:	71 05       	cpc	r23, r1
    2380:	39 f4       	brne	.+14     	; 0x2390 <__ftoa_engine+0x28>
    2382:	32 60       	ori	r19, 0x02	; 2
    2384:	2e 5f       	subi	r18, 0xFE	; 254
    2386:	3d 93       	st	X+, r19
    2388:	30 e3       	ldi	r19, 0x30	; 48
    238a:	2a 95       	dec	r18
    238c:	e1 f7       	brne	.-8      	; 0x2386 <__ftoa_engine+0x1e>
    238e:	08 95       	ret
    2390:	9f 3f       	cpi	r25, 0xFF	; 255
    2392:	30 f0       	brcs	.+12     	; 0x23a0 <__ftoa_engine+0x38>
    2394:	80 38       	cpi	r24, 0x80	; 128
    2396:	71 05       	cpc	r23, r1
    2398:	61 05       	cpc	r22, r1
    239a:	09 f0       	breq	.+2      	; 0x239e <__ftoa_engine+0x36>
    239c:	3c 5f       	subi	r19, 0xFC	; 252
    239e:	3c 5f       	subi	r19, 0xFC	; 252
    23a0:	3d 93       	st	X+, r19
    23a2:	91 30       	cpi	r25, 0x01	; 1
    23a4:	08 f0       	brcs	.+2      	; 0x23a8 <__ftoa_engine+0x40>
    23a6:	80 68       	ori	r24, 0x80	; 128
    23a8:	91 1d       	adc	r25, r1
    23aa:	df 93       	push	r29
    23ac:	cf 93       	push	r28
    23ae:	1f 93       	push	r17
    23b0:	0f 93       	push	r16
    23b2:	ff 92       	push	r15
    23b4:	ef 92       	push	r14
    23b6:	19 2f       	mov	r17, r25
    23b8:	98 7f       	andi	r25, 0xF8	; 248
    23ba:	96 95       	lsr	r25
    23bc:	e9 2f       	mov	r30, r25
    23be:	96 95       	lsr	r25
    23c0:	96 95       	lsr	r25
    23c2:	e9 0f       	add	r30, r25
    23c4:	ff 27       	eor	r31, r31
    23c6:	e6 53       	subi	r30, 0x36	; 54
    23c8:	ff 4f       	sbci	r31, 0xFF	; 255
    23ca:	99 27       	eor	r25, r25
    23cc:	33 27       	eor	r19, r19
    23ce:	ee 24       	eor	r14, r14
    23d0:	ff 24       	eor	r15, r15
    23d2:	a7 01       	movw	r20, r14
    23d4:	e7 01       	movw	r28, r14
    23d6:	05 90       	lpm	r0, Z+
    23d8:	08 94       	sec
    23da:	07 94       	ror	r0
    23dc:	28 f4       	brcc	.+10     	; 0x23e8 <__ftoa_engine+0x80>
    23de:	36 0f       	add	r19, r22
    23e0:	e7 1e       	adc	r14, r23
    23e2:	f8 1e       	adc	r15, r24
    23e4:	49 1f       	adc	r20, r25
    23e6:	51 1d       	adc	r21, r1
    23e8:	66 0f       	add	r22, r22
    23ea:	77 1f       	adc	r23, r23
    23ec:	88 1f       	adc	r24, r24
    23ee:	99 1f       	adc	r25, r25
    23f0:	06 94       	lsr	r0
    23f2:	a1 f7       	brne	.-24     	; 0x23dc <__ftoa_engine+0x74>
    23f4:	05 90       	lpm	r0, Z+
    23f6:	07 94       	ror	r0
    23f8:	28 f4       	brcc	.+10     	; 0x2404 <__ftoa_engine+0x9c>
    23fa:	e7 0e       	add	r14, r23
    23fc:	f8 1e       	adc	r15, r24
    23fe:	49 1f       	adc	r20, r25
    2400:	56 1f       	adc	r21, r22
    2402:	c1 1d       	adc	r28, r1
    2404:	77 0f       	add	r23, r23
    2406:	88 1f       	adc	r24, r24
    2408:	99 1f       	adc	r25, r25
    240a:	66 1f       	adc	r22, r22
    240c:	06 94       	lsr	r0
    240e:	a1 f7       	brne	.-24     	; 0x23f8 <__ftoa_engine+0x90>
    2410:	05 90       	lpm	r0, Z+
    2412:	07 94       	ror	r0
    2414:	28 f4       	brcc	.+10     	; 0x2420 <__ftoa_engine+0xb8>
    2416:	f8 0e       	add	r15, r24
    2418:	49 1f       	adc	r20, r25
    241a:	56 1f       	adc	r21, r22
    241c:	c7 1f       	adc	r28, r23
    241e:	d1 1d       	adc	r29, r1
    2420:	88 0f       	add	r24, r24
    2422:	99 1f       	adc	r25, r25
    2424:	66 1f       	adc	r22, r22
    2426:	77 1f       	adc	r23, r23
    2428:	06 94       	lsr	r0
    242a:	a1 f7       	brne	.-24     	; 0x2414 <__ftoa_engine+0xac>
    242c:	05 90       	lpm	r0, Z+
    242e:	07 94       	ror	r0
    2430:	20 f4       	brcc	.+8      	; 0x243a <__ftoa_engine+0xd2>
    2432:	49 0f       	add	r20, r25
    2434:	56 1f       	adc	r21, r22
    2436:	c7 1f       	adc	r28, r23
    2438:	d8 1f       	adc	r29, r24
    243a:	99 0f       	add	r25, r25
    243c:	66 1f       	adc	r22, r22
    243e:	77 1f       	adc	r23, r23
    2440:	88 1f       	adc	r24, r24
    2442:	06 94       	lsr	r0
    2444:	a9 f7       	brne	.-22     	; 0x2430 <__ftoa_engine+0xc8>
    2446:	84 91       	lpm	r24, Z
    2448:	10 95       	com	r17
    244a:	17 70       	andi	r17, 0x07	; 7
    244c:	41 f0       	breq	.+16     	; 0x245e <__ftoa_engine+0xf6>
    244e:	d6 95       	lsr	r29
    2450:	c7 95       	ror	r28
    2452:	57 95       	ror	r21
    2454:	47 95       	ror	r20
    2456:	f7 94       	ror	r15
    2458:	e7 94       	ror	r14
    245a:	1a 95       	dec	r17
    245c:	c1 f7       	brne	.-16     	; 0x244e <__ftoa_engine+0xe6>
    245e:	e0 e7       	ldi	r30, 0x70	; 112
    2460:	f0 e0       	ldi	r31, 0x00	; 0
    2462:	68 94       	set
    2464:	15 90       	lpm	r1, Z+
    2466:	15 91       	lpm	r17, Z+
    2468:	35 91       	lpm	r19, Z+
    246a:	65 91       	lpm	r22, Z+
    246c:	95 91       	lpm	r25, Z+
    246e:	05 90       	lpm	r0, Z+
    2470:	7f e2       	ldi	r23, 0x2F	; 47
    2472:	73 95       	inc	r23
    2474:	e1 18       	sub	r14, r1
    2476:	f1 0a       	sbc	r15, r17
    2478:	43 0b       	sbc	r20, r19
    247a:	56 0b       	sbc	r21, r22
    247c:	c9 0b       	sbc	r28, r25
    247e:	d0 09       	sbc	r29, r0
    2480:	c0 f7       	brcc	.-16     	; 0x2472 <__ftoa_engine+0x10a>
    2482:	e1 0c       	add	r14, r1
    2484:	f1 1e       	adc	r15, r17
    2486:	43 1f       	adc	r20, r19
    2488:	56 1f       	adc	r21, r22
    248a:	c9 1f       	adc	r28, r25
    248c:	d0 1d       	adc	r29, r0
    248e:	7e f4       	brtc	.+30     	; 0x24ae <__ftoa_engine+0x146>
    2490:	70 33       	cpi	r23, 0x30	; 48
    2492:	11 f4       	brne	.+4      	; 0x2498 <__ftoa_engine+0x130>
    2494:	8a 95       	dec	r24
    2496:	e6 cf       	rjmp	.-52     	; 0x2464 <__ftoa_engine+0xfc>
    2498:	e8 94       	clt
    249a:	01 50       	subi	r16, 0x01	; 1
    249c:	30 f0       	brcs	.+12     	; 0x24aa <__ftoa_engine+0x142>
    249e:	08 0f       	add	r16, r24
    24a0:	0a f4       	brpl	.+2      	; 0x24a4 <__ftoa_engine+0x13c>
    24a2:	00 27       	eor	r16, r16
    24a4:	02 17       	cp	r16, r18
    24a6:	08 f4       	brcc	.+2      	; 0x24aa <__ftoa_engine+0x142>
    24a8:	20 2f       	mov	r18, r16
    24aa:	23 95       	inc	r18
    24ac:	02 2f       	mov	r16, r18
    24ae:	7a 33       	cpi	r23, 0x3A	; 58
    24b0:	28 f0       	brcs	.+10     	; 0x24bc <__ftoa_engine+0x154>
    24b2:	79 e3       	ldi	r23, 0x39	; 57
    24b4:	7d 93       	st	X+, r23
    24b6:	2a 95       	dec	r18
    24b8:	e9 f7       	brne	.-6      	; 0x24b4 <__ftoa_engine+0x14c>
    24ba:	10 c0       	rjmp	.+32     	; 0x24dc <__ftoa_engine+0x174>
    24bc:	7d 93       	st	X+, r23
    24be:	2a 95       	dec	r18
    24c0:	89 f6       	brne	.-94     	; 0x2464 <__ftoa_engine+0xfc>
    24c2:	06 94       	lsr	r0
    24c4:	97 95       	ror	r25
    24c6:	67 95       	ror	r22
    24c8:	37 95       	ror	r19
    24ca:	17 95       	ror	r17
    24cc:	17 94       	ror	r1
    24ce:	e1 18       	sub	r14, r1
    24d0:	f1 0a       	sbc	r15, r17
    24d2:	43 0b       	sbc	r20, r19
    24d4:	56 0b       	sbc	r21, r22
    24d6:	c9 0b       	sbc	r28, r25
    24d8:	d0 09       	sbc	r29, r0
    24da:	98 f0       	brcs	.+38     	; 0x2502 <__ftoa_engine+0x19a>
    24dc:	23 95       	inc	r18
    24de:	7e 91       	ld	r23, -X
    24e0:	73 95       	inc	r23
    24e2:	7a 33       	cpi	r23, 0x3A	; 58
    24e4:	08 f0       	brcs	.+2      	; 0x24e8 <__ftoa_engine+0x180>
    24e6:	70 e3       	ldi	r23, 0x30	; 48
    24e8:	7c 93       	st	X, r23
    24ea:	20 13       	cpse	r18, r16
    24ec:	b8 f7       	brcc	.-18     	; 0x24dc <__ftoa_engine+0x174>
    24ee:	7e 91       	ld	r23, -X
    24f0:	70 61       	ori	r23, 0x10	; 16
    24f2:	7d 93       	st	X+, r23
    24f4:	30 f0       	brcs	.+12     	; 0x2502 <__ftoa_engine+0x19a>
    24f6:	83 95       	inc	r24
    24f8:	71 e3       	ldi	r23, 0x31	; 49
    24fa:	7d 93       	st	X+, r23
    24fc:	70 e3       	ldi	r23, 0x30	; 48
    24fe:	2a 95       	dec	r18
    2500:	e1 f7       	brne	.-8      	; 0x24fa <__ftoa_engine+0x192>
    2502:	11 24       	eor	r1, r1
    2504:	ef 90       	pop	r14
    2506:	ff 90       	pop	r15
    2508:	0f 91       	pop	r16
    250a:	1f 91       	pop	r17
    250c:	cf 91       	pop	r28
    250e:	df 91       	pop	r29
    2510:	99 27       	eor	r25, r25
    2512:	87 fd       	sbrc	r24, 7
    2514:	90 95       	com	r25
    2516:	08 95       	ret

00002518 <strnlen_P>:
    2518:	fc 01       	movw	r30, r24
    251a:	05 90       	lpm	r0, Z+
    251c:	61 50       	subi	r22, 0x01	; 1
    251e:	70 40       	sbci	r23, 0x00	; 0
    2520:	01 10       	cpse	r0, r1
    2522:	d8 f7       	brcc	.-10     	; 0x251a <strnlen_P+0x2>
    2524:	80 95       	com	r24
    2526:	90 95       	com	r25
    2528:	8e 0f       	add	r24, r30
    252a:	9f 1f       	adc	r25, r31
    252c:	08 95       	ret

0000252e <strcat>:
    252e:	fb 01       	movw	r30, r22
    2530:	dc 01       	movw	r26, r24
    2532:	0d 90       	ld	r0, X+
    2534:	00 20       	and	r0, r0
    2536:	e9 f7       	brne	.-6      	; 0x2532 <strcat+0x4>
    2538:	11 97       	sbiw	r26, 0x01	; 1
    253a:	01 90       	ld	r0, Z+
    253c:	0d 92       	st	X+, r0
    253e:	00 20       	and	r0, r0
    2540:	e1 f7       	brne	.-8      	; 0x253a <strcat+0xc>
    2542:	08 95       	ret

00002544 <strncmp>:
    2544:	fb 01       	movw	r30, r22
    2546:	dc 01       	movw	r26, r24
    2548:	41 50       	subi	r20, 0x01	; 1
    254a:	50 40       	sbci	r21, 0x00	; 0
    254c:	30 f0       	brcs	.+12     	; 0x255a <strncmp+0x16>
    254e:	8d 91       	ld	r24, X+
    2550:	01 90       	ld	r0, Z+
    2552:	80 19       	sub	r24, r0
    2554:	19 f4       	brne	.+6      	; 0x255c <strncmp+0x18>
    2556:	00 20       	and	r0, r0
    2558:	b9 f7       	brne	.-18     	; 0x2548 <strncmp+0x4>
    255a:	88 1b       	sub	r24, r24
    255c:	99 0b       	sbc	r25, r25
    255e:	08 95       	ret

00002560 <strncpy>:
    2560:	fb 01       	movw	r30, r22
    2562:	dc 01       	movw	r26, r24
    2564:	41 50       	subi	r20, 0x01	; 1
    2566:	50 40       	sbci	r21, 0x00	; 0
    2568:	48 f0       	brcs	.+18     	; 0x257c <strncpy+0x1c>
    256a:	01 90       	ld	r0, Z+
    256c:	0d 92       	st	X+, r0
    256e:	00 20       	and	r0, r0
    2570:	c9 f7       	brne	.-14     	; 0x2564 <strncpy+0x4>
    2572:	01 c0       	rjmp	.+2      	; 0x2576 <strncpy+0x16>
    2574:	1d 92       	st	X+, r1
    2576:	41 50       	subi	r20, 0x01	; 1
    2578:	50 40       	sbci	r21, 0x00	; 0
    257a:	e0 f7       	brcc	.-8      	; 0x2574 <strncpy+0x14>
    257c:	08 95       	ret

0000257e <strnlen>:
    257e:	fc 01       	movw	r30, r24
    2580:	61 50       	subi	r22, 0x01	; 1
    2582:	70 40       	sbci	r23, 0x00	; 0
    2584:	01 90       	ld	r0, Z+
    2586:	01 10       	cpse	r0, r1
    2588:	d8 f7       	brcc	.-10     	; 0x2580 <strnlen+0x2>
    258a:	80 95       	com	r24
    258c:	90 95       	com	r25
    258e:	8e 0f       	add	r24, r30
    2590:	9f 1f       	adc	r25, r31
    2592:	08 95       	ret

00002594 <fputc>:
    2594:	0f 93       	push	r16
    2596:	1f 93       	push	r17
    2598:	cf 93       	push	r28
    259a:	df 93       	push	r29
    259c:	8c 01       	movw	r16, r24
    259e:	eb 01       	movw	r28, r22
    25a0:	8b 81       	ldd	r24, Y+3	; 0x03
    25a2:	81 fd       	sbrc	r24, 1
    25a4:	03 c0       	rjmp	.+6      	; 0x25ac <fputc+0x18>
    25a6:	0f ef       	ldi	r16, 0xFF	; 255
    25a8:	1f ef       	ldi	r17, 0xFF	; 255
    25aa:	1a c0       	rjmp	.+52     	; 0x25e0 <fputc+0x4c>
    25ac:	82 ff       	sbrs	r24, 2
    25ae:	0d c0       	rjmp	.+26     	; 0x25ca <fputc+0x36>
    25b0:	2e 81       	ldd	r18, Y+6	; 0x06
    25b2:	3f 81       	ldd	r19, Y+7	; 0x07
    25b4:	8c 81       	ldd	r24, Y+4	; 0x04
    25b6:	9d 81       	ldd	r25, Y+5	; 0x05
    25b8:	28 17       	cp	r18, r24
    25ba:	39 07       	cpc	r19, r25
    25bc:	64 f4       	brge	.+24     	; 0x25d6 <fputc+0x42>
    25be:	e8 81       	ld	r30, Y
    25c0:	f9 81       	ldd	r31, Y+1	; 0x01
    25c2:	01 93       	st	Z+, r16
    25c4:	f9 83       	std	Y+1, r31	; 0x01
    25c6:	e8 83       	st	Y, r30
    25c8:	06 c0       	rjmp	.+12     	; 0x25d6 <fputc+0x42>
    25ca:	e8 85       	ldd	r30, Y+8	; 0x08
    25cc:	f9 85       	ldd	r31, Y+9	; 0x09
    25ce:	80 2f       	mov	r24, r16
    25d0:	09 95       	icall
    25d2:	89 2b       	or	r24, r25
    25d4:	41 f7       	brne	.-48     	; 0x25a6 <fputc+0x12>
    25d6:	8e 81       	ldd	r24, Y+6	; 0x06
    25d8:	9f 81       	ldd	r25, Y+7	; 0x07
    25da:	01 96       	adiw	r24, 0x01	; 1
    25dc:	9f 83       	std	Y+7, r25	; 0x07
    25de:	8e 83       	std	Y+6, r24	; 0x06
    25e0:	c8 01       	movw	r24, r16
    25e2:	df 91       	pop	r29
    25e4:	cf 91       	pop	r28
    25e6:	1f 91       	pop	r17
    25e8:	0f 91       	pop	r16
    25ea:	08 95       	ret

000025ec <sprintf>:
    25ec:	ae e0       	ldi	r26, 0x0E	; 14
    25ee:	b0 e0       	ldi	r27, 0x00	; 0
    25f0:	ec ef       	ldi	r30, 0xFC	; 252
    25f2:	f2 e1       	ldi	r31, 0x12	; 18
    25f4:	0c 94 8b 11 	jmp	0x2316	; 0x2316 <__prologue_saves__+0x1c>
    25f8:	0d 89       	ldd	r16, Y+21	; 0x15
    25fa:	1e 89       	ldd	r17, Y+22	; 0x16
    25fc:	86 e0       	ldi	r24, 0x06	; 6
    25fe:	8c 83       	std	Y+4, r24	; 0x04
    2600:	1a 83       	std	Y+2, r17	; 0x02
    2602:	09 83       	std	Y+1, r16	; 0x01
    2604:	8f ef       	ldi	r24, 0xFF	; 255
    2606:	9f e7       	ldi	r25, 0x7F	; 127
    2608:	9e 83       	std	Y+6, r25	; 0x06
    260a:	8d 83       	std	Y+5, r24	; 0x05
    260c:	ce 01       	movw	r24, r28
    260e:	49 96       	adiw	r24, 0x19	; 25
    2610:	ac 01       	movw	r20, r24
    2612:	6f 89       	ldd	r22, Y+23	; 0x17
    2614:	78 8d       	ldd	r23, Y+24	; 0x18
    2616:	ce 01       	movw	r24, r28
    2618:	01 96       	adiw	r24, 0x01	; 1
    261a:	0e 94 fb 0d 	call	0x1bf6	; 0x1bf6 <vfprintf>
    261e:	ef 81       	ldd	r30, Y+7	; 0x07
    2620:	f8 85       	ldd	r31, Y+8	; 0x08
    2622:	e0 0f       	add	r30, r16
    2624:	f1 1f       	adc	r31, r17
    2626:	10 82       	st	Z, r1
    2628:	2e 96       	adiw	r28, 0x0e	; 14
    262a:	e4 e0       	ldi	r30, 0x04	; 4
    262c:	0c 94 a7 11 	jmp	0x234e	; 0x234e <__epilogue_restores__+0x1c>

00002630 <__ultoa_invert>:
    2630:	fa 01       	movw	r30, r20
    2632:	aa 27       	eor	r26, r26
    2634:	28 30       	cpi	r18, 0x08	; 8
    2636:	51 f1       	breq	.+84     	; 0x268c <__ultoa_invert+0x5c>
    2638:	20 31       	cpi	r18, 0x10	; 16
    263a:	81 f1       	breq	.+96     	; 0x269c <__ultoa_invert+0x6c>
    263c:	e8 94       	clt
    263e:	6f 93       	push	r22
    2640:	6e 7f       	andi	r22, 0xFE	; 254
    2642:	6e 5f       	subi	r22, 0xFE	; 254
    2644:	7f 4f       	sbci	r23, 0xFF	; 255
    2646:	8f 4f       	sbci	r24, 0xFF	; 255
    2648:	9f 4f       	sbci	r25, 0xFF	; 255
    264a:	af 4f       	sbci	r26, 0xFF	; 255
    264c:	b1 e0       	ldi	r27, 0x01	; 1
    264e:	3e d0       	rcall	.+124    	; 0x26cc <__ultoa_invert+0x9c>
    2650:	b4 e0       	ldi	r27, 0x04	; 4
    2652:	3c d0       	rcall	.+120    	; 0x26cc <__ultoa_invert+0x9c>
    2654:	67 0f       	add	r22, r23
    2656:	78 1f       	adc	r23, r24
    2658:	89 1f       	adc	r24, r25
    265a:	9a 1f       	adc	r25, r26
    265c:	a1 1d       	adc	r26, r1
    265e:	68 0f       	add	r22, r24
    2660:	79 1f       	adc	r23, r25
    2662:	8a 1f       	adc	r24, r26
    2664:	91 1d       	adc	r25, r1
    2666:	a1 1d       	adc	r26, r1
    2668:	6a 0f       	add	r22, r26
    266a:	71 1d       	adc	r23, r1
    266c:	81 1d       	adc	r24, r1
    266e:	91 1d       	adc	r25, r1
    2670:	a1 1d       	adc	r26, r1
    2672:	20 d0       	rcall	.+64     	; 0x26b4 <__ultoa_invert+0x84>
    2674:	09 f4       	brne	.+2      	; 0x2678 <__ultoa_invert+0x48>
    2676:	68 94       	set
    2678:	3f 91       	pop	r19
    267a:	2a e0       	ldi	r18, 0x0A	; 10
    267c:	26 9f       	mul	r18, r22
    267e:	11 24       	eor	r1, r1
    2680:	30 19       	sub	r19, r0
    2682:	30 5d       	subi	r19, 0xD0	; 208
    2684:	31 93       	st	Z+, r19
    2686:	de f6       	brtc	.-74     	; 0x263e <__ultoa_invert+0xe>
    2688:	cf 01       	movw	r24, r30
    268a:	08 95       	ret
    268c:	46 2f       	mov	r20, r22
    268e:	47 70       	andi	r20, 0x07	; 7
    2690:	40 5d       	subi	r20, 0xD0	; 208
    2692:	41 93       	st	Z+, r20
    2694:	b3 e0       	ldi	r27, 0x03	; 3
    2696:	0f d0       	rcall	.+30     	; 0x26b6 <__ultoa_invert+0x86>
    2698:	c9 f7       	brne	.-14     	; 0x268c <__ultoa_invert+0x5c>
    269a:	f6 cf       	rjmp	.-20     	; 0x2688 <__ultoa_invert+0x58>
    269c:	46 2f       	mov	r20, r22
    269e:	4f 70       	andi	r20, 0x0F	; 15
    26a0:	40 5d       	subi	r20, 0xD0	; 208
    26a2:	4a 33       	cpi	r20, 0x3A	; 58
    26a4:	18 f0       	brcs	.+6      	; 0x26ac <__ultoa_invert+0x7c>
    26a6:	49 5d       	subi	r20, 0xD9	; 217
    26a8:	31 fd       	sbrc	r19, 1
    26aa:	40 52       	subi	r20, 0x20	; 32
    26ac:	41 93       	st	Z+, r20
    26ae:	02 d0       	rcall	.+4      	; 0x26b4 <__ultoa_invert+0x84>
    26b0:	a9 f7       	brne	.-22     	; 0x269c <__ultoa_invert+0x6c>
    26b2:	ea cf       	rjmp	.-44     	; 0x2688 <__ultoa_invert+0x58>
    26b4:	b4 e0       	ldi	r27, 0x04	; 4
    26b6:	a6 95       	lsr	r26
    26b8:	97 95       	ror	r25
    26ba:	87 95       	ror	r24
    26bc:	77 95       	ror	r23
    26be:	67 95       	ror	r22
    26c0:	ba 95       	dec	r27
    26c2:	c9 f7       	brne	.-14     	; 0x26b6 <__ultoa_invert+0x86>
    26c4:	00 97       	sbiw	r24, 0x00	; 0
    26c6:	61 05       	cpc	r22, r1
    26c8:	71 05       	cpc	r23, r1
    26ca:	08 95       	ret
    26cc:	9b 01       	movw	r18, r22
    26ce:	ac 01       	movw	r20, r24
    26d0:	0a 2e       	mov	r0, r26
    26d2:	06 94       	lsr	r0
    26d4:	57 95       	ror	r21
    26d6:	47 95       	ror	r20
    26d8:	37 95       	ror	r19
    26da:	27 95       	ror	r18
    26dc:	ba 95       	dec	r27
    26de:	c9 f7       	brne	.-14     	; 0x26d2 <__ultoa_invert+0xa2>
    26e0:	62 0f       	add	r22, r18
    26e2:	73 1f       	adc	r23, r19
    26e4:	84 1f       	adc	r24, r20
    26e6:	95 1f       	adc	r25, r21
    26e8:	a0 1d       	adc	r26, r0
    26ea:	08 95       	ret

000026ec <_exit>:
    26ec:	f8 94       	cli

000026ee <__stop_program>:
    26ee:	ff cf       	rjmp	.-2      	; 0x26ee <__stop_program>
